(lp0
(dp1
S'code'
p2
S'C00'
p3
sS'name'
p4
S'MERCER COUNTY'
p5
sS'long'
p6
S'-90.7370833333'
p7
sS'state'
p8
S'ILLINOIS'
p9
sS'lat'
p10
S'41.2486444444'
p11
sS'type'
p12
S'AIRPORT'
p13
sa(dp14
g2
S'ALN'
p15
sg4
S'ST LOUIS RGNL'
p16
sg6
S'-90.046'
p17
sg8
S'ILLINOIS'
p18
sg10
S'38.8899166667'
p19
sg12
S'AIRPORT'
p20
sa(dp21
g2
S'K06'
p22
sg4
S'GREATER BEARDSTOWN'
p23
sg6
S'-90.4037333333'
p24
sg8
S'ILLINOIS'
p25
sg10
S'39.9733805556'
p26
sg12
S'AIRPORT'
p27
sa(dp28
g2
S'BLV'
p29
sg4
S'SCOTT AFB/MIDAMERICA'
p30
sg6
S'-89.8351944444'
p31
sg8
S'ILLINOIS'
p32
sg10
S'38.5451666667'
p33
sg12
S'AIRPORT'
p34
sa(dp35
g2
S'H96'
p36
sg4
S'BENTON MUNI'
p37
sg6
S'-88.9344444444'
p38
sg8
S'ILLINOIS'
p39
sg10
S'38.0085'
p40
sg12
S'AIRPORT'
p41
sa(dp42
g2
S'BMI'
p43
sg4
S'CENTRAL IL RGNL ARPT AT BLOOMINGTON-NORMAL'
p44
sg6
S'-88.9159166667'
p45
sg8
S'ILLINOIS'
p46
sg10
S'40.4771111111'
p47
sg12
S'AIRPORT'
p48
sa(dp49
g2
S'1C5'
p50
sg4
S"BOLINGBROOK'S CLOW INTL"
p51
sg6
S'-88.1295'
p52
sg8
S'ILLINOIS'
p53
sg10
S'41.6959166667'
p54
sg12
S'AIRPORT'
p55
sa(dp56
g2
S'CPS'
p57
sg4
S'ST LOUIS DOWNTOWN'
p58
sg6
S'-90.1550833333'
p59
sg8
S'ILLINOIS'
p60
sg10
S'38.5703611111'
p61
sg12
S'AIRPORT'
p62
sa(dp63
g2
S'CIR'
p64
sg4
S'CAIRO RGNL'
p65
sg6
S'-89.2195277778'
p66
sg8
S'ILLINOIS'
p67
sg10
S'37.0641388889'
p68
sg12
S'AIRPORT'
p69
sa(dp70
g2
S'CTK'
p71
sg4
S'INGERSOLL'
p72
sg6
S'-90.0748333333'
p73
sg8
S'ILLINOIS'
p74
sg10
S'40.5690833333'
p75
sg12
S'AIRPORT'
p76
sa(dp77
g2
S'MDH'
p78
sg4
S'SOUTHERN ILLINOIS'
p79
sg6
S'-89.2520277778'
p80
sg8
S'ILLINOIS'
p81
sg10
S'37.7780833333'
p82
sg12
S'AIRPORT'
p83
sa(dp84
g2
S'CUL'
p85
sg4
S'CARMI MUNI'
p86
sg6
S'-88.1230611111'
p87
sg8
S'ILLINOIS'
p88
sg10
S'38.0894777778'
p89
sg12
S'AIRPORT'
p90
sa(dp91
g2
S'1H8'
p92
sg4
S'CASEY MUNI'
p93
sg6
S'-88.0040611111'
p94
sg8
S'ILLINOIS'
p95
sg10
S'39.3025083333'
p96
sg12
S'AIRPORT'
p97
sa(dp98
g2
S'ENL'
p99
sg4
S'CENTRALIA MUNI'
p100
sg6
S'-89.0911388889'
p101
sg8
S'ILLINOIS'
p102
sg10
S'38.5150833333'
p103
sg12
S'AIRPORT'
p104
sa(dp105
g2
S'CMI'
p106
sg4
S'UNIVERSITY OF ILLINOIS-WILLARD'
p107
sg6
S'-88.2778055556'
p108
sg8
S'ILLINOIS'
p109
sg10
S'40.0388333333'
p110
sg12
S'AIRPORT'
p111
sa(dp112
g2
S'MDW'
p113
sg4
S'CHICAGO MIDWAY INTL'
p114
sg6
S'-87.7524166667'
p115
sg8
S'ILLINOIS'
p116
sg10
S'41.7859722222'
p117
sg12
S'AIRPORT'
p118
sa(dp119
g2
S'ORD'
p120
sg4
S"CHICAGO O'HARE INTL"
p121
sg6
S'-87.9080055556'
p122
sg8
S'ILLINOIS'
p123
sg10
S'41.9773194444'
p124
sg12
S'AIRPORT'
p125
sa(dp126
g2
S'IGQ'
p127
sg4
S'LANSING MUNI'
p128
sg6
S'-87.5295277778'
p129
sg8
S'ILLINOIS'
p130
sg10
S'41.5349166667'
p131
sg12
S'AIRPORT'
p132
sa(dp133
g2
S'ARR'
p134
sg4
S'AURORA MUNI'
p135
sg6
S'-88.4756666667'
p136
sg8
S'ILLINOIS'
p137
sg10
S'41.7719166667'
p138
sg12
S'AIRPORT'
p139
sa(dp140
g2
S'3CK'
p141
sg4
S'LAKE IN THE HILLS'
p142
sg6
S'-88.3229944444'
p143
sg8
S'ILLINOIS'
p144
sg10
S'42.2068083333'
p145
sg12
S'AIRPORT'
p146
sa(dp147
g2
S'PWK'
p148
sg4
S'CHICAGO EXECUTIVE'
p149
sg6
S'-87.9015277778'
p150
sg8
S'ILLINOIS'
p151
sg10
S'42.1142777778'
p152
sg12
S'AIRPORT'
p153
sa(dp154
g2
S'RFD'
p155
sg4
S'CHICAGO/ROCKFORD INTL'
p156
sg6
S'-89.0972222222'
p157
sg8
S'ILLINOIS'
p158
sg10
S'42.1953611111'
p159
sg12
S'AIRPORT'
p160
sa(dp161
g2
S'LOT'
p162
sg4
S'LEWIS UNIVERSITY'
p163
sg6
S'-88.0961944444'
p164
sg8
S'ILLINOIS'
p165
sg10
S'41.6081111111'
p166
sg12
S'AIRPORT'
p167
sa(dp168
g2
S'4H1'
p169
sg4
S'SCHAUMBURG MUNI HELISTOP'
p170
sg6
S'-88.0525694444'
p171
sg8
S'ILLINOIS'
p172
sg10
S'42.0480805556'
p173
sg12
S'HELIPORT'
p174
sa(dp175
g2
S'06C'
p176
sg4
S'SCHAUMBURG RGNL'
p177
sg6
S'-88.1012416667'
p178
sg8
S'ILLINOIS'
p179
sg10
S'41.9893388889'
p180
sg12
S'AIRPORT'
p181
sa(dp182
g2
S'TF8'
p183
sg4
S'TINLEY PARK HELISTOP'
p184
sg6
S'-87.8058333333'
p185
sg8
S'ILLINOIS'
p186
sg10
S'41.5591666667'
p187
sg12
S'HELIPORT'
p188
sa(dp189
g2
S'UGN'
p190
sg4
S'WAUKEGAN RGNL'
p191
sg6
S'-87.8679055556'
p192
sg8
S'ILLINOIS'
p193
sg10
S'42.4221583333'
p194
sg12
S'AIRPORT'
p195
sa(dp196
g2
S'DPA'
p197
sg4
S'DUPAGE'
p198
sg6
S'-88.248'
p199
sg8
S'ILLINOIS'
p200
sg10
S'41.9070555556'
p201
sg12
S'AIRPORT'
p202
sa(dp203
g2
S'H49'
p204
sg4
S'SACKMAN FIELD'
p205
sg6
S'-90.2360555556'
p206
sg8
S'ILLINOIS'
p207
sg10
S'38.4523055556'
p208
sg12
S'AIRPORT'
p209
sa(dp210
g2
S'C82'
p211
sg4
S'BRESSON'
p212
sg6
S'-89.1014805556'
p213
sg8
S'ILLINOIS'
p214
sg10
S'41.7625277778'
p215
sg12
S'AIRPORT'
p216
sa(dp217
g2
S'DNV'
p218
sg4
S'VERMILION REGIONAL'
p219
sg6
S'-87.5955277778'
p220
sg8
S'ILLINOIS'
p221
sg10
S'40.1996944444'
p222
sg12
S'AIRPORT'
p223
sa(dp224
g2
S'DKB'
p225
sg4
S'DE KALB TAYLOR MUNI'
p226
sg6
S'-88.7056861111'
p227
sg8
S'ILLINOIS'
p228
sg10
S'41.9338333333'
p229
sg12
S'AIRPORT'
p230
sa(dp231
g2
S'DEC'
p232
sg4
S'DECATUR'
p233
sg6
S'-88.8656888889'
p234
sg8
S'ILLINOIS'
p235
sg10
S'39.8345611111'
p236
sg12
S'AIRPORT'
p237
sa(dp238
g2
S'C73'
p239
sg4
S'DIXON MUNI-CHARLES R WALGREEN FIELD'
p240
sg6
S'-89.4462111111'
p241
sg8
S'ILLINOIS'
p242
sg10
S'41.8336972222'
p243
sg12
S'AIRPORT'
p244
sa(dp245
g2
S'DTG'
p246
sg4
S'DWIGHT'
p247
sg6
S'-88.4386444444'
p248
sg8
S'ILLINOIS'
p249
sg10
S'41.1326194444'
p250
sg12
S'AIRPORT'
p251
sa(dp252
g2
S'1H2'
p253
sg4
S'EFFINGHAM COUNTY MEMORIAL'
p254
sg6
S'-88.5335277778'
p255
sg8
S'ILLINOIS'
p256
sg10
S'39.0704444444'
p257
sg12
S'AIRPORT'
p258
sa(dp259
g2
S'3H5'
p260
sg4
S'ERIE AIR PARK'
p261
sg6
S'-90.0786111111'
p262
sg8
S'ILLINOIS'
p263
sg10
S'41.6824166667'
p264
sg12
S'ULTRALIGHT'
p265
sa(dp266
g2
S'FWC'
p267
sg4
S'FAIRFIELD MUNI'
p268
sg6
S'-88.41265'
p269
sg8
S'ILLINOIS'
p270
sg10
S'38.3786305556'
p271
sg12
S'AIRPORT'
p272
sa(dp273
g2
S'FOA'
p274
sg4
S'FLORA MUNI'
p275
sg6
S'-88.4531111111'
p276
sg8
S'ILLINOIS'
p277
sg10
S'38.6649888889'
p278
sg12
S'AIRPORT'
p279
sa(dp280
g2
S'FEP'
p281
sg4
S'ALBERTUS'
p282
sg6
S'-89.581975'
p283
sg8
S'ILLINOIS'
p284
sg10
S'42.2461138889'
p285
sg12
S'AIRPORT'
p286
sa(dp287
g2
S'C86'
p288
sg4
S'FREEPORT/DORNINK'
p289
sg6
S'-89.5640027778'
p290
sg8
S'ILLINOIS'
p291
sg10
S'42.3777916667'
p292
sg12
S'AIRPORT'
p293
sa(dp294
g2
S'GBG'
p295
sg4
S'GALESBURG MUNI'
p296
sg6
S'-90.4311222222'
p297
sg8
S'ILLINOIS'
p298
sg10
S'40.938'
p299
sg12
S'AIRPORT'
p300
sa(dp301
g2
S'3G8'
p302
sg4
S'GEN-AIRPARK'
p303
sg6
S'-90.1100555556'
p304
sg8
S'ILLINOIS'
p305
sg10
S'41.4397777778'
p306
sg12
S'AIRPORT'
p307
sa(dp308
g2
S'C81'
p309
sg4
S'CAMPBELL'
p310
sg6
S'-88.0740861111'
p311
sg8
S'ILLINOIS'
p312
sg10
S'42.3246111111'
p313
sg12
S'AIRPORT'
p314
sa(dp315
g2
S'GRE'
p316
sg4
S'GREENVILLE'
p317
sg6
S'-89.3788888889'
p318
sg8
S'ILLINOIS'
p319
sg10
S'38.8362222222'
p320
sg12
S'AIRPORT'
p321
sa(dp322
g2
S'10C'
p323
sg4
S'GALT FIELD'
p324
sg6
S'-88.3751111111'
p325
sg8
S'ILLINOIS'
p326
sg10
S'42.4028888889'
p327
sg12
S'AIRPORT'
p328
sa(dp329
g2
S'HSB'
p330
sg4
S'HARRISBURG-RALEIGH'
p331
sg6
S'-88.5502583333'
p332
sg8
S'ILLINOIS'
p333
sg10
S'37.8112555556'
p334
sg12
S'AIRPORT'
p335
sa(dp336
g2
S'0C0'
p337
sg4
S'DACY'
p338
sg6
S'-88.6323888889'
p339
sg8
S'ILLINOIS'
p340
sg10
S'42.4024722222'
p341
sg12
S'AIRPORT'
p342
sa(dp343
g2
S'9I0'
p344
sg4
S'HAVANA RGNL'
p345
sg6
S'-90.0227805556'
p346
sg8
S'ILLINOIS'
p347
sg10
S'40.2226916667'
p348
sg12
S'AIRPORT'
p349
sa(dp350
g2
S'H07'
p351
sg4
S'HIGHLAND-WINET'
p352
sg6
S'-89.64045'
p353
sg8
S'ILLINOIS'
p354
sg10
S'38.77925'
p355
sg12
S'AIRPORT'
p356
sa(dp357
g2
S'0C2'
p358
sg4
S'HINCKLEY'
p359
sg6
S'-88.7034138889'
p360
sg8
S'ILLINOIS'
p361
sg10
S'41.7708611111'
p362
sg12
S'AIRPORT'
p363
sa(dp364
g2
S'IJX'
p365
sg4
S'JACKSONVILLE MUNI'
p366
sg6
S'-90.2382777778'
p367
sg8
S'ILLINOIS'
p368
sg10
S'39.7746111111'
p369
sg12
S'AIRPORT'
p370
sa(dp371
g2
S'JOT'
p372
sg4
S'JOLIET RGNL'
p373
sg6
S'-88.1755222222'
p374
sg8
S'ILLINOIS'
p375
sg10
S'41.5176583333'
p376
sg12
S'AIRPORT'
p377
sa(dp378
g2
S'IKK'
p379
sg4
S'GREATER KANKAKEE'
p380
sg6
S'-87.8462777778'
p381
sg8
S'ILLINOIS'
p382
sg10
S'41.0713888889'
p383
sg12
S'AIRPORT'
p384
sa(dp385
g2
S'3KK'
p386
sg4
S'KANKAKEE'
p387
sg6
S'-87.9167083333'
p388
sg8
S'ILLINOIS'
p389
sg10
S'41.1000305556'
p390
sg12
S'AIRPORT'
p391
sa(dp392
g2
S'EZI'
p393
sg4
S'KEWANEE MUNI'
p394
sg6
S'-89.9638611111'
p395
sg8
S'ILLINOIS'
p396
sg10
S'41.2051944444'
p397
sg12
S'AIRPORT'
p398
sa(dp399
g2
S'C75'
p400
sg4
S'MARSHALL COUNTY'
p401
sg6
S'-89.3857777778'
p402
sg8
S'ILLINOIS'
p403
sg10
S'41.0188333333'
p404
sg12
S'AIRPORT'
p405
sa(dp406
g2
S'LWV'
p407
sg4
S'LAWRENCEVILLE-VINCENNES INTL'
p408
sg6
S'-87.6055'
p409
sg8
S'ILLINOIS'
p410
sg10
S'38.7642777778'
p411
sg12
S'AIRPORT'
p412
sa(dp413
g2
S'AAA'
p414
sg4
S'LOGAN COUNTY'
p415
sg6
S'-89.3350277778'
p416
sg8
S'ILLINOIS'
p417
sg10
S'40.1586944444'
p418
sg12
S'AIRPORT'
p419
sa(dp420
g2
S'3LF'
p421
sg4
S'LITCHFIELD MUNI'
p422
sg6
S'-89.6746388889'
p423
sg8
S'ILLINOIS'
p424
sg10
S'39.1625'
p425
sg12
S'AIRPORT'
p426
sa(dp427
g2
S'2V3'
p428
sg4
S'HARTENBOWER HECTARES'
p429
sg6
S'-89.1466944444'
p430
sg8
S'ILLINOIS'
p431
sg10
S'41.1815'
p432
sg12
S'AIRPORT'
p433
sa(dp434
g2
S'MQB'
p435
sg4
S'MACOMB MUNI'
p436
sg6
S'-90.6523888889'
p437
sg8
S'ILLINOIS'
p438
sg10
S'40.5200833333'
p439
sg12
S'AIRPORT'
p440
sa(dp441
g2
S'MWA'
p442
sg4
S'WILLIAMSON COUNTY RGNL'
p443
sg6
S'-89.0110833333'
p444
sg8
S'ILLINOIS'
p445
sg10
S'37.7549722222'
p446
sg12
S'AIRPORT'
p447
sa(dp448
g2
S'MTO'
p449
sg4
S'COLES COUNTY MEMORIAL'
p450
sg6
S'-88.2799722222'
p451
sg8
S'ILLINOIS'
p452
sg10
S'39.4778888889'
p453
sg12
S'AIRPORT'
p454
sa(dp455
g2
S'0C7'
p456
sg4
S"GRANDPA'S FARM MENDOTA"
p457
sg6
S'-89.1325833333'
p458
sg8
S'ILLINOIS'
p459
sg10
S'41.521975'
p460
sg12
S'AIRPORT'
p461
sa(dp462
g2
S'M30'
p463
sg4
S'METROPOLIS MUNI'
p464
sg6
S'-88.7506666667'
p465
sg8
S'ILLINOIS'
p466
sg10
S'37.1829444444'
p467
sg12
S'AIRPORT'
p468
sa(dp469
g2
S'MLI'
p470
sg4
S'QUAD CITY INTL'
p471
sg6
S'-90.5075277778'
p472
sg8
S'ILLINOIS'
p473
sg10
S'41.4482777778'
p474
sg12
S'AIRPORT'
p475
sa(dp476
g2
S'I04'
p477
sg4
S'QUAD-CITY'
p478
sg6
S'-90.4929083333'
p479
sg8
S'ILLINOIS'
p480
sg10
S'41.4600333333'
p481
sg12
S'SEAPLANE BASE'
p482
sa(dp483
g2
S'C56'
p484
sg4
S'BULT FIELD'
p485
sg6
S'-87.67975'
p486
sg8
S'ILLINOIS'
p487
sg10
S'41.3774166667'
p488
sg12
S'AIRPORT'
p489
sa(dp490
g2
S'C66'
p491
sg4
S'MONMOUTH MUNI'
p492
sg6
S'-90.6311055556'
p493
sg8
S'ILLINOIS'
p494
sg10
S'40.9297027778'
p495
sg12
S'AIRPORT'
p496
sa(dp497
g2
S'2K0'
p498
sg4
S'PIATT COUNTY'
p499
sg6
S'-88.5585833333'
p500
sg8
S'ILLINOIS'
p501
sg10
S'40.0052777778'
p502
sg12
S'AIRPORT'
p503
sa(dp504
g2
S'C09'
p505
sg4
S'MORRIS MUNI - JAMES R WASHBURN FIELD'
p506
sg6
S'-88.4186388889'
p507
sg8
S'ILLINOIS'
p508
sg10
S'41.4240555556'
p509
sg12
S'AIRPORT'
p510
sa(dp511
g2
S'AJG'
p512
sg4
S'MOUNT CARMEL MUNI'
p513
sg6
S'-87.7266944444'
p514
sg8
S'ILLINOIS'
p515
sg10
S'38.6065277778'
p516
sg12
S'AIRPORT'
p517
sa(dp518
g2
S'C55'
p519
sg4
S'OGLE COUNTY'
p520
sg6
S'-89.3928833333'
p521
sg8
S'ILLINOIS'
p522
sg10
S'42.03725'
p523
sg12
S'AIRPORT'
p524
sa(dp525
g2
S'I63'
p526
sg4
S'MOUNT STERLING MUNI'
p527
sg6
S'-90.8041388889'
p528
sg8
S'ILLINOIS'
p529
sg10
S'39.9853888889'
p530
sg12
S'AIRPORT'
p531
sa(dp532
g2
S'MVN'
p533
sg4
S'MOUNT VERNON'
p534
sg6
S'-88.8585'
p535
sg8
S'ILLINOIS'
p536
sg10
S'38.3233611111'
p537
sg12
S'AIRPORT'
p538
sa(dp539
g2
S'0C8'
p540
sg4
S'CUSHING FIELD LTD'
p541
sg6
S'-88.6056277778'
p542
sg8
S'ILLINOIS'
p543
sg10
S'41.519475'
p544
sg12
S'AIRPORT'
p545
sa(dp546
g2
S'OLY'
p547
sg4
S'OLNEY-NOBLE'
p548
sg6
S'-88.1764305556'
p549
sg8
S'ILLINOIS'
p550
sg10
S'38.721825'
p551
sg12
S'AIRPORT'
p552
sa(dp553
g2
S'8N2'
p554
sg4
S'SKYDIVE CHICAGO'
p555
sg6
S'-88.7939166667'
p556
sg8
S'ILLINOIS'
p557
sg10
S'41.3997777778'
p558
sg12
S'AIRPORT'
p559
sa(dp560
g2
S'5K1'
p561
sg4
S'ZELMER MEMORIAL AIRPARK INC'
p562
sg6
S'-89.9912166667'
p563
sg8
S'ILLINOIS'
p564
sg10
S'39.4200472222'
p565
sg12
S'AIRPORT'
p566
sa(dp567
g2
S'PRG'
p568
sg4
S'EDGAR COUNTY'
p569
sg6
S'-87.6707777778'
p570
sg8
S'ILLINOIS'
p571
sg10
S'39.6996666667'
p572
sg12
S'AIRPORT'
p573
sa(dp574
g2
S'1C1'
p575
sg4
S'PAXTON'
p576
sg6
S'-88.1277361111'
p577
sg8
S'ILLINOIS'
p578
sg10
S'40.4489777778'
p579
sg12
S'AIRPORT'
p580
sa(dp581
g2
S'C15'
p582
sg4
S'PEKIN MUNI'
p583
sg6
S'-89.6758888889'
p584
sg8
S'ILLINOIS'
p585
sg10
S'40.4881944444'
p586
sg12
S'AIRPORT'
p587
sa(dp588
g2
S'PIA'
p589
sg4
S'GENERAL DOWNING - PEORIA INTL'
p590
sg6
S'-89.69325'
p591
sg8
S'ILLINOIS'
p592
sg10
S'40.6641944444'
p593
sg12
S'AIRPORT'
p594
sa(dp595
g2
S'3MY'
p596
sg4
S'MOUNT HAWLEY AUXILIARY'
p597
sg6
S'-89.6134722222'
p598
sg8
S'ILLINOIS'
p599
sg10
S'40.7958055556'
p600
sg12
S'AIRPORT'
p601
sa(dp602
g2
S'VYS'
p603
sg4
S'ILLINOIS VALLEY RGNL-WALTER A DUNCAN FIELD'
p604
sg6
S'-89.1529444444'
p605
sg8
S'ILLINOIS'
p606
sg10
S'41.3501388889'
p607
sg12
S'AIRPORT'
p608
sa(dp609
g2
S'PJY'
p610
sg4
S'PINCKNEYVILLE-DU QUOIN'
p611
sg6
S'-89.3604472222'
p612
sg8
S'ILLINOIS'
p613
sg10
S'37.9778833333'
p614
sg12
S'AIRPORT'
p615
sa(dp616
g2
S'PPQ'
p617
sg4
S'PITTSFIELD PENSTONE MUNI'
p618
sg6
S'-90.7785583333'
p619
sg8
S'ILLINOIS'
p620
sg10
S'39.6388888889'
p621
sg12
S'AIRPORT'
p622
sa(dp623
g2
S'PNT'
p624
sg4
S'PONTIAC MUNI'
p625
sg6
S'-88.6239444444'
p626
sg8
S'ILLINOIS'
p627
sg10
S'40.9244444444'
p628
sg12
S'AIRPORT'
p629
sa(dp630
g2
S'C77'
p631
sg4
S'POPLAR GROVE'
p632
sg6
S'-88.8363055556'
p633
sg8
S'ILLINOIS'
p634
sg10
S'42.3228611111'
p635
sg12
S'AIRPORT'
p636
sa(dp637
g2
S'UIN'
p638
sg4
S'QUINCY RGNL-BALDWIN FIELD'
p639
sg6
S'-91.1944611111'
p640
sg8
S'ILLINOIS'
p641
sg10
S'39.9430166667'
p642
sg12
S'AIRPORT'
p643
sa(dp644
g2
S'TIP'
p645
sg4
S'RANTOUL NATL AVN CNTR-FRANK ELLIOTT FLD'
p646
sg6
S'-88.1423888889'
p647
sg8
S'ILLINOIS'
p648
sg10
S'40.2935555556'
p649
sg12
S'AIRPORT'
p650
sa(dp651
g2
S'RSV'
p652
sg4
S'CRAWFORD CO'
p653
sg6
S'-87.6497777778'
p654
sg8
S'ILLINOIS'
p655
sg10
S'39.0160277778'
p656
sg12
S'AIRPORT'
p657
sa(dp658
g2
S'RPJ'
p659
sg4
S'ROCHELLE MUNI AIRPORT-KORITZ FIELD'
p660
sg6
S'-89.0796111111'
p661
sg8
S'ILLINOIS'
p662
sg10
S'41.8926388889'
p663
sg12
S'AIRPORT'
p664
sa(dp665
g2
S'1C8'
p666
sg4
S'COTTONWOOD'
p667
sg6
S'-89.1362166667'
p668
sg8
S'ILLINOIS'
p669
sg10
S'42.2916833333'
p670
sg12
S'AIRPORT'
p671
sa(dp672
g2
S'5K4'
p673
sg4
S'SCHUY-RUSH'
p674
sg6
S'-90.5904027778'
p675
sg8
S'ILLINOIS'
p676
sg10
S'40.1175444444'
p677
sg12
S'AIRPORT'
p678
sa(dp679
g2
S'SLO'
p680
sg4
S'SALEM-LECKRONE'
p681
sg6
S'-88.9641833333'
p682
sg8
S'ILLINOIS'
p683
sg10
S'38.6428722222'
p684
sg12
S'AIRPORT'
p685
sa(dp686
g2
S'SFY'
p687
sg4
S'TRI-TOWNSHIP'
p688
sg6
S'-90.1079444444'
p689
sg8
S'ILLINOIS'
p690
sg10
S'42.0458333333'
p691
sg12
S'AIRPORT'
p692
sa(dp693
g2
S'2H0'
p694
sg4
S'SHELBY COUNTY'
p695
sg6
S'-88.8454222222'
p696
sg8
S'ILLINOIS'
p697
sg10
S'39.4106'
p698
sg12
S'AIRPORT'
p699
sa(dp700
g2
S'SAR'
p701
sg4
S'SPARTA COMMUNITY-HUNTER FIELD'
p702
sg6
S'-89.6985027778'
p703
sg8
S'ILLINOIS'
p704
sg10
S'38.1488611111'
p705
sg12
S'AIRPORT'
p706
sa(dp707
g2
S'SPI'
p708
sg4
S'ABRAHAM LINCOLN CAPITAL'
p709
sg6
S'-89.6780833333'
p710
sg8
S'ILLINOIS'
p711
sg10
S'39.8442222222'
p712
sg12
S'AIRPORT'
p713
sa(dp714
g2
S'3K6'
p715
sg4
S'ST LOUIS METRO-EAST/SHAFER FIELD'
p716
sg6
S'-89.8065666667'
p717
sg8
S'ILLINOIS'
p718
sg10
S'38.7329083333'
p719
sg12
S'AIRPORT'
p720
sa(dp721
g2
S'SQI'
p722
sg4
S'WHITESIDE CO ARPT-JOS H BITTORF FLD'
p723
sg6
S'-89.6762777778'
p724
sg8
S'ILLINOIS'
p725
sg10
S'41.7428333333'
p726
sg12
S'AIRPORT'
p727
sa(dp728
g2
S'TAZ'
p729
sg4
S'TAYLORVILLE MUNI'
p730
sg6
S'-89.3307055556'
p731
sg8
S'ILLINOIS'
p732
sg10
S'39.5325833333'
p733
sg12
S'AIRPORT'
p734
sa(dp735
g2
S'K96'
p736
sg4
S'TUSCOLA'
p737
sg6
S'-88.3064444444'
p738
sg8
S'ILLINOIS'
p739
sg10
S'39.7811972222'
p740
sg12
S'AIRPORT'
p741
sa(dp742
g2
S'C16'
p743
sg4
S'FRASCA FIELD'
p744
sg6
S'-88.1984861111'
p745
sg8
S'ILLINOIS'
p746
sg10
S'40.1463972222'
p747
sg12
S'AIRPORT'
p748
sa(dp749
g2
S'VLA'
p750
sg4
S'VANDALIA MUNI'
p751
sg6
S'-89.1662222222'
p752
sg8
S'ILLINOIS'
p753
sg10
S'38.9913055556'
p754
sg12
S'AIRPORT'
p755
sa(dp756
g2
S'2T2'
p757
sg4
S'PERCIVAL SPRINGS'
p758
sg6
S'-88.5392777778'
p759
sg8
S'ILLINOIS'
p760
sg10
S'39.0144444444'
p761
sg12
S'AIRPORT'
p762
sa(dp763
g2
S'2C6'
p764
sg4
S'TRI-COUNTY'
p765
sg6
S'-90.0744166667'
p766
sg8
S'ILLINOIS'
p767
sg10
S'40.774'
p768
sg12
S'AIRPORT'
p769
sa(dp770
g2
S'I99'
p771
sg4
S'ALEXANDRIA'
p772
sg6
S'-85.6375305556'
p773
sg8
S'INDIANA'
p774
sg10
S'40.2325111111'
p775
sg12
S'AIRPORT'
p776
sa(dp777
g2
S'AID'
p778
sg4
S'ANDERSON MUNI-DARLINGTON FIELD'
p779
sg6
S'-85.613'
p780
sg8
S'INDIANA'
p781
sg10
S'40.1086111111'
p782
sg12
S'AIRPORT'
p783
sa(dp784
g2
S'I58'
p785
sg4
S'CROOKED LAKE'
p786
sg6
S'-85.0413888889'
p787
sg8
S'INDIANA'
p788
sg10
S'41.6724166667'
p789
sg12
S'SEAPLANE BASE'
p790
sa(dp791
g2
S'01E'
p792
sg4
S'LAKE JAMES'
p793
sg6
S'-85.0393055556'
p794
sg8
S'INDIANA'
p795
sg10
S'41.7'
p796
sg12
S'SEAPLANE BASE'
p797
sa(dp798
g2
S'C67'
p799
sg4
S'LAKE PLEASANT'
p800
sg6
S'-85.0919444444'
p801
sg8
S'INDIANA'
p802
sg10
S'41.757'
p803
sg12
S'SEAPLANE BASE'
p804
sa(dp805
g2
S'ANQ'
p806
sg4
S'TRI-STATE STEUBEN COUNTY'
p807
sg6
S'-85.0834916667'
p808
sg8
S'INDIANA'
p809
sg10
S'41.6396972222'
p810
sg12
S'AIRPORT'
p811
sa(dp812
g2
S'GWB'
p813
sg4
S'DE KALB COUNTY'
p814
sg6
S'-85.0643611111'
p815
sg8
S'INDIANA'
p816
sg10
S'41.3071666667'
p817
sg12
S'AIRPORT'
p818
sa(dp819
g2
S'HLB'
p820
sg4
S'BATESVILLE'
p821
sg6
S'-85.258425'
p822
sg8
S'INDIANA'
p823
sg10
S'39.3431277778'
p824
sg12
S'AIRPORT'
p825
sa(dp826
g2
S'BFR'
p827
sg4
S'VIRGIL I GRISSOM MUNI'
p828
sg6
S'-86.4453611111'
p829
sg8
S'INDIANA'
p830
sg10
S'38.8400277778'
p831
sg12
S'AIRPORT'
p832
sa(dp833
g2
S'1I3'
p834
sg4
S'SHAWNEE FIELD'
p835
sg6
S'-87.00275'
p836
sg8
S'INDIANA'
p837
sg10
S'39.0427222222'
p838
sg12
S'AIRPORT'
p839
sa(dp840
g2
S'07I'
p841
sg4
S'LAKE MONROE'
p842
sg6
S'-86.4460833333'
p843
sg8
S'INDIANA'
p844
sg10
S'39.0613333333'
p845
sg12
S'SEAPLANE BASE'
p846
sa(dp847
g2
S'BMG'
p848
sg4
S'MONROE COUNTY'
p849
sg6
S'-86.6166777778'
p850
sg8
S'INDIANA'
p851
sg10
S'39.1460194444'
p852
sg12
S'AIRPORT'
p853
sa(dp854
g2
S'C40'
p855
sg4
S'MILLER'
p856
sg6
S'-85.2499694444'
p857
sg8
S'INDIANA'
p858
sg10
S'40.7167111111'
p859
sg12
S'AIRPORT'
p860
sa(dp861
g2
S'I91'
p862
sg4
S'BOONVILLE'
p863
sg6
S'-87.3177833333'
p864
sg8
S'INDIANA'
p865
sg10
S'38.0425444444'
p866
sg12
S'AIRPORT'
p867
sa(dp868
g2
S'0I2'
p869
sg4
S'BRAZIL CLAY COUNTY'
p870
sg6
S'-87.0997083333'
p871
sg8
S'INDIANA'
p872
sg10
S'39.4767333333'
p873
sg12
S'AIRPORT'
p874
sa(dp875
g2
S'12I'
p876
sg4
S'BROOKVILLE RESERVOIR'
p877
sg6
S'-85.0005555556'
p878
sg8
S'INDIANA'
p879
sg10
S'39.5333055556'
p880
sg12
S'SEAPLANE BASE'
p881
sa(dp882
g2
S'1I6'
p883
sg4
S'HOLIDAY INN LAKEVIEW'
p884
sg6
S'-85.7557944444'
p885
sg8
S'INDIANA'
p886
sg10
S'38.2834027778'
p887
sg12
S'HELIPORT'
p888
sa(dp889
g2
S'57P'
p890
sg4
S'CLEAR LAKE'
p891
sg6
S'-84.8372222222'
p892
sg8
S'INDIANA'
p893
sg10
S'41.7356111111'
p894
sg12
S'SEAPLANE BASE'
p895
sa(dp896
g2
S'1I7'
p897
sg4
S'CLINTON'
p898
sg6
S'-87.4002944444'
p899
sg8
S'INDIANA'
p900
sg10
S'39.7120027778'
p901
sg12
S'AIRPORT'
p902
sa(dp903
g2
S'BAK'
p904
sg4
S'COLUMBUS MUNI'
p905
sg6
S'-85.8963333333'
p906
sg8
S'INDIANA'
p907
sg10
S'39.2619166667'
p908
sg12
S'AIRPORT'
p909
sa(dp910
g2
S'CEV'
p911
sg4
S'METTEL FIELD'
p912
sg6
S'-85.1311388889'
p913
sg8
S'INDIANA'
p914
sg10
S'39.6981944444'
p915
sg12
S'AIRPORT'
p916
sa(dp917
g2
S'1I8'
p918
sg4
S'CONVERSE'
p919
sg6
S'-85.89165'
p920
sg8
S'INDIANA'
p921
sg10
S'40.5708722222'
p922
sg12
S'AIRPORT'
p923
sa(dp924
g2
S'CFJ'
p925
sg4
S'CRAWFORDSVILLE MUNI'
p926
sg6
S'-86.9210833333'
p927
sg8
S'INDIANA'
p928
sg10
S'39.9746388889'
p929
sg12
S'AIRPORT'
p930
sa(dp931
g2
S'01H'
p932
sg4
S'LAKE MAXINKUCKEE'
p933
sg6
S'-86.4044444444'
p934
sg8
S'INDIANA'
p935
sg10
S'41.2061111111'
p936
sg12
S'SEAPLANE BASE'
p937
sa(dp938
g2
S'1I9'
p939
sg4
S'DELPHI MUNI'
p940
sg6
S'-86.6814833333'
p941
sg8
S'INDIANA'
p942
sg10
S'40.543'
p943
sg12
S'AIRPORT'
p944
sa(dp945
g2
S'EKM'
p946
sg4
S'ELKHART MUNI'
p947
sg6
S'-86.0032166667'
p948
sg8
S'INDIANA'
p949
sg10
S'41.7194055556'
p950
sg12
S'AIRPORT'
p951
sa(dp952
g2
S'3C1'
p953
sg4
S'MISHAWAKA PILOTS CLUB'
p954
sg6
S'-86.0347222222'
p955
sg8
S'INDIANA'
p956
sg10
S'41.6569916667'
p957
sg12
S'AIRPORT'
p958
sa(dp959
g2
S'78I'
p960
sg4
S"PAM'S PLACE"
p961
sg6
S'-86.6885'
p962
sg8
S'INDIANA'
p963
sg10
S'39.5016472222'
p964
sg12
S'AIRPORT'
p965
sa(dp966
g2
S'EVV'
p967
sg4
S'EVANSVILLE RGNL'
p968
sg6
S'-87.5285'
p969
sg8
S'INDIANA'
p970
sg10
S'38.0408055556'
p971
sg12
S'AIRPORT'
p972
sa(dp973
g2
S'3EV'
p974
sg4
S'SKYLANE'
p975
sg6
S'-87.5947222222'
p976
sg8
S'INDIANA'
p977
sg10
S'38.0116666667'
p978
sg12
S'AIRPORT'
p979
sa(dp980
g2
S'5I2'
p981
sg4
S'FLORA MUNI'
p982
sg6
S'-86.5483305556'
p983
sg8
S'INDIANA'
p984
sg10
S'40.5397583333'
p985
sg12
S'AIRPORT'
p986
sa(dp987
g2
S'FWA'
p988
sg4
S'FORT WAYNE INTL'
p989
sg6
S'-85.1951666667'
p990
sg8
S'INDIANA'
p991
sg10
S'40.9784722222'
p992
sg12
S'AIRPORT'
p993
sa(dp994
g2
S'SMD'
p995
sg4
S'SMITH FIELD'
p996
sg6
S'-85.1527777778'
p997
sg8
S'INDIANA'
p998
sg10
S'41.1433611111'
p999
sg12
S'AIRPORT'
p1000
sa(dp1001
g2
S'FKR'
p1002
sg4
S'FRANKFORT MUNI'
p1003
sg6
S'-86.5621694444'
p1004
sg8
S'INDIANA'
p1005
sg10
S'40.2734305556'
p1006
sg12
S'AIRPORT'
p1007
sa(dp1008
g2
S'3FK'
p1009
sg4
S'FRANKLIN FLYING FIELD'
p1010
sg6
S'-86.0583194444'
p1011
sg8
S'INDIANA'
p1012
sg10
S'39.4264388889'
p1013
sg12
S'AIRPORT'
p1014
sa(dp1015
g2
S'FRH'
p1016
sg4
S'FRENCH LICK MUNI'
p1017
sg6
S'-86.6369444444'
p1018
sg8
S'INDIANA'
p1019
sg10
S'38.5062222222'
p1020
sg12
S'AIRPORT'
p1021
sa(dp1022
g2
S'06I'
p1023
sg4
S'PATOKA RESERVOIR LANDING AREA'
p1024
sg6
S'-86.6911'
p1025
sg8
S'INDIANA'
p1026
sg10
S'38.4333861111'
p1027
sg12
S'SEAPLANE BASE'
p1028
sa(dp1029
g2
S'5I6'
p1030
sg4
S'GALVESTON'
p1031
sg6
S'-86.2569388889'
p1032
sg8
S'INDIANA'
p1033
sg10
S'40.5842027778'
p1034
sg12
S'AIRPORT'
p1035
sa(dp1036
g2
S'GYY'
p1037
sg4
S'GARY/CHICAGO INTL'
p1038
sg6
S'-87.4145277778'
p1039
sg8
S'INDIANA'
p1040
sg10
S'41.61725'
p1041
sg12
S'AIRPORT'
p1042
sa(dp1043
g2
S'GSH'
p1044
sg4
S'GOSHEN MUNI'
p1045
sg6
S'-85.7941611111'
p1046
sg8
S'INDIANA'
p1047
sg10
S'41.5262638889'
p1048
sg12
S'AIRPORT'
p1049
sa(dp1050
g2
S'GPC'
p1051
sg4
S'PUTNAM COUNTY RGNL'
p1052
sg6
S'-86.8138055556'
p1053
sg8
S'INDIANA'
p1054
sg10
S'39.6335277778'
p1055
sg12
S'AIRPORT'
p1056
sa(dp1057
g2
S'GFD'
p1058
sg4
S'POPE FIELD'
p1059
sg6
S'-85.7360861111'
p1060
sg8
S'INDIANA'
p1061
sg10
S'39.7903194444'
p1062
sg12
S'AIRPORT'
p1063
sa(dp1064
g2
S'I34'
p1065
sg4
S'GREENSBURG MUNICIPAL'
p1066
sg6
S'-85.522525'
p1067
sg8
S'INDIANA'
p1068
sg10
S'39.3269111111'
p1069
sg12
S'AIRPORT'
p1070
sa(dp1071
g2
S'05C'
p1072
sg4
S'GRIFFITH-MERRILLVILLE'
p1073
sg6
S'-87.3995055556'
p1074
sg8
S'INDIANA'
p1075
sg10
S'41.5198388889'
p1076
sg12
S'AIRPORT'
p1077
sa(dp1078
g2
S'I61'
p1079
sg4
S'HAGERSTOWN'
p1080
sg6
S'-85.1633333333'
p1081
sg8
S'INDIANA'
p1082
sg10
S'39.8891666667'
p1083
sg12
S'AIRPORT'
p1084
sa(dp1085
g2
S'II9'
p1086
sg4
S'WILBUR WRIGHT BIRTHPLACE'
p1087
sg6
S'-85.2433333333'
p1088
sg8
S'INDIANA'
p1089
sg10
S'39.9541666667'
p1090
sg12
S'HELIPORT'
p1091
sa(dp1092
g2
S'01F'
p1093
sg4
S'HAMILTON LAKE'
p1094
sg6
S'-84.9172222222'
p1095
sg8
S'INDIANA'
p1096
sg10
S'41.5522222222'
p1097
sg12
S'SEAPLANE BASE'
p1098
sa(dp1099
g2
S'64I'
p1100
sg4
S'LEE BOTTOM'
p1101
sg6
S'-85.4434194444'
p1102
sg8
S'INDIANA'
p1103
sg10
S'38.6314416667'
p1104
sg12
S'AIRPORT'
p1105
sa(dp1106
g2
S'3HO'
p1107
sg4
S'HOBART SKY RANCH'
p1108
sg6
S'-87.2625333333'
p1109
sg8
S'INDIANA'
p1110
sg10
S'41.5542027778'
p1111
sg12
S'AIRPORT'
p1112
sa(dp1113
g2
S'HNB'
p1114
sg4
S'HUNTINGBURG'
p1115
sg6
S'-86.9536944444'
p1116
sg8
S'INDIANA'
p1117
sg10
S'38.2490277778'
p1118
sg12
S'AIRPORT'
p1119
sa(dp1120
g2
S'HHG'
p1121
sg4
S'HUNTINGTON MUNI'
p1122
sg6
S'-85.4570555556'
p1123
sg8
S'INDIANA'
p1124
sg10
S'40.8529166667'
p1125
sg12
S'AIRPORT'
p1126
sa(dp1127
g2
S'EYE'
p1128
sg4
S'EAGLE CREEK AIRPARK'
p1129
sg6
S'-86.2943833333'
p1130
sg8
S'INDIANA'
p1131
sg10
S'39.8307166667'
p1132
sg12
S'AIRPORT'
p1133
sa(dp1134
g2
S'HFY'
p1135
sg4
S'GREENWOOD MUNI'
p1136
sg6
S'-86.0880277778'
p1137
sg8
S'INDIANA'
p1138
sg10
S'39.6276111111'
p1139
sg12
S'AIRPORT'
p1140
sa(dp1141
g2
S'2R2'
p1142
sg4
S'HENDRICKS COUNTY-GORDON GRAHAM FLD'
p1143
sg6
S'-86.4751666667'
p1144
sg8
S'INDIANA'
p1145
sg10
S'39.7467777778'
p1146
sg12
S'AIRPORT'
p1147
sa(dp1148
g2
S'8A4'
p1149
sg4
S'INDIANAPOLIS DOWNTOWN'
p1150
sg6
S'-86.148875'
p1151
sg8
S'INDIANA'
p1152
sg10
S'39.765875'
p1153
sg12
S'HELIPORT'
p1154
sa(dp1155
g2
S'TYQ'
p1156
sg4
S'INDIANAPOLIS EXECUTIVE'
p1157
sg6
S'-86.2514444444'
p1158
sg8
S'INDIANA'
p1159
sg10
S'40.0306666667'
p1160
sg12
S'AIRPORT'
p1161
sa(dp1162
g2
S'IND'
p1163
sg4
S'INDIANAPOLIS INTL'
p1164
sg6
S'-86.2946388889'
p1165
sg8
S'INDIANA'
p1166
sg10
S'39.7173055556'
p1167
sg12
S'AIRPORT'
p1168
sa(dp1169
g2
S'UMP'
p1170
sg4
S'INDIANAPOLIS METROPOLITAN'
p1171
sg6
S'-86.0450666667'
p1172
sg8
S'INDIANA'
p1173
sg10
S'39.9353972222'
p1174
sg12
S'AIRPORT'
p1175
sa(dp1176
g2
S'MQJ'
p1177
sg4
S'INDIANAPOLIS RGNL'
p1178
sg6
S'-85.8977222222'
p1179
sg8
S'INDIANA'
p1180
sg10
S'39.8431388889'
p1181
sg12
S'AIRPORT'
p1182
sa(dp1183
g2
S'7L8'
p1184
sg4
S'POST-AIR'
p1185
sg6
S'-86.0138694444'
p1186
sg8
S'INDIANA'
p1187
sg10
S'39.7500416667'
p1188
sg12
S'AIRPORT'
p1189
sa(dp1190
g2
S'JVY'
p1191
sg4
S'CLARK RGNL'
p1192
sg6
S'-85.7381944444'
p1193
sg8
S'INDIANA'
p1194
sg10
S'38.3654166667'
p1195
sg12
S'AIRPORT'
p1196
sa(dp1197
g2
S'C62'
p1198
sg4
S'KENDALLVILLE MUNI'
p1199
sg6
S'-85.2608083333'
p1200
sg8
S'INDIANA'
p1201
sg10
S'41.4727138889'
p1202
sg12
S'AIRPORT'
p1203
sa(dp1204
g2
S'50I'
p1205
sg4
S'KENTLAND MUNI'
p1206
sg6
S'-87.429125'
p1207
sg8
S'INDIANA'
p1208
sg10
S'40.7587416667'
p1209
sg12
S'AIRPORT'
p1210
sa(dp1211
g2
S'OXI'
p1212
sg4
S'STARKE COUNTY'
p1213
sg6
S'-86.6648055556'
p1214
sg8
S'INDIANA'
p1215
sg10
S'41.3301944444'
p1216
sg12
S'AIRPORT'
p1217
sa(dp1218
g2
S'8I3'
p1219
sg4
S'GLENNDALE'
p1220
sg6
S'-86.203325'
p1221
sg8
S'INDIANA'
p1222
sg10
S'40.4333694444'
p1223
sg12
S'AIRPORT'
p1224
sa(dp1225
g2
S'OKK'
p1226
sg4
S'KOKOMO MUNI'
p1227
sg6
S'-86.0597361111'
p1228
sg8
S'INDIANA'
p1229
sg10
S'40.5276555556'
p1230
sg12
S'AIRPORT'
p1231
sa(dp1232
g2
S'PPO'
p1233
sg4
S'LA PORTE MUNI'
p1234
sg6
S'-86.734525'
p1235
sg8
S'INDIANA'
p1236
sg10
S'41.5724722222'
p1237
sg12
S'AIRPORT'
p1238
sa(dp1239
g2
S'LAF'
p1240
sg4
S'PURDUE UNIVERSITY'
p1241
sg6
S'-86.9368888889'
p1242
sg8
S'INDIANA'
p1243
sg10
S'40.4123055556'
p1244
sg12
S'AIRPORT'
p1245
sa(dp1246
g2
S'C98'
p1247
sg4
S'LAKE VILLAGE'
p1248
sg6
S'-87.4625305556'
p1249
sg8
S'INDIANA'
p1250
sg10
S'41.1500333333'
p1251
sg12
S'AIRPORT'
p1252
sa(dp1253
g2
S'6I4'
p1254
sg4
S'BOONE COUNTY'
p1255
sg6
S'-86.4405527778'
p1256
sg8
S'INDIANA'
p1257
sg10
S'40.0072611111'
p1258
sg12
S'AIRPORT'
p1259
sa(dp1260
g2
S'GGP'
p1261
sg4
S'LOGANSPORT/CASS COUNTY'
p1262
sg6
S'-86.3726944444'
p1263
sg8
S'INDIANA'
p1264
sg10
S'40.7112777778'
p1265
sg12
S'AIRPORT'
p1266
sa(dp1267
g2
S'C97'
p1268
sg4
S'LOWELL'
p1269
sg6
S'-87.5076944444'
p1270
sg8
S'INDIANA'
p1271
sg10
S'41.2301388889'
p1272
sg12
S'AIRPORT'
p1273
sa(dp1274
g2
S'IMS'
p1275
sg4
S'MADISON MUNI'
p1276
sg6
S'-85.4646944444'
p1277
sg8
S'INDIANA'
p1278
sg10
S'38.7599166667'
p1279
sg12
S'AIRPORT'
p1280
sa(dp1281
g2
S'MZZ'
p1282
sg4
S'MARION MUNI'
p1283
sg6
S'-85.6797777778'
p1284
sg8
S'INDIANA'
p1285
sg10
S'40.4899166667'
p1286
sg12
S'AIRPORT'
p1287
sa(dp1288
g2
S'C92'
p1289
sg4
S'MENTONE'
p1290
sg6
S'-86.0624944444'
p1291
sg8
S'INDIANA'
p1292
sg10
S'41.1500416667'
p1293
sg12
S'AIRPORT'
p1294
sa(dp1295
g2
S'MGC'
p1296
sg4
S'MICHIGAN CITY MUNI-PHILLIPS FIELD'
p1297
sg6
S'-86.8212416667'
p1298
sg8
S'INDIANA'
p1299
sg10
S'41.7033166667'
p1300
sg12
S'AIRPORT'
p1301
sa(dp1302
g2
S'MCX'
p1303
sg4
S'WHITE COUNTY'
p1304
sg6
S'-86.7667916667'
p1305
sg8
S'INDIANA'
p1306
sg10
S'40.7101944444'
p1307
sg12
S'AIRPORT'
p1308
sa(dp1309
g2
S'MIE'
p1310
sg4
S'DELAWARE COUNTY RGNL'
p1311
sg6
S'-85.39575'
p1312
sg8
S'INDIANA'
p1313
sg10
S'40.2424722222'
p1314
sg12
S'AIRPORT'
p1315
sa(dp1316
g2
S'7I2'
p1317
sg4
S'REESE'
p1318
sg6
S'-85.3166361111'
p1319
sg8
S'INDIANA'
p1320
sg10
S'40.1542083333'
p1321
sg12
S'AIRPORT'
p1322
sa(dp1323
g2
S'C03'
p1324
sg4
S'NAPPANEE MUNI'
p1325
sg6
S'-85.9360444444'
p1326
sg8
S'INDIANA'
p1327
sg10
S'41.4461555556'
p1328
sg12
S'AIRPORT'
p1329
sa(dp1330
g2
S'UWL'
p1331
sg4
S'NEW CASTLE-HENRY CO MUNI'
p1332
sg6
S'-85.3264666667'
p1333
sg8
S'INDIANA'
p1334
sg10
S'39.87585'
p1335
sg12
S'AIRPORT'
p1336
sa(dp1337
g2
S'I80'
p1338
sg4
S'NOBLESVILLE'
p1339
sg6
S'-85.9645277778'
p1340
sg8
S'INDIANA'
p1341
sg10
S'40.0035'
p1342
sg12
S'AIRPORT'
p1343
sa(dp1344
g2
S'OVO'
p1345
sg4
S'NORTH VERNON'
p1346
sg6
S'-85.6056111111'
p1347
sg8
S'INDIANA'
p1348
sg10
S'39.0453333333'
p1349
sg12
S'AIRPORT'
p1350
sa(dp1351
g2
S'I20'
p1352
sg4
S'ED-AIR'
p1353
sg6
S'-87.4997916667'
p1354
sg8
S'INDIANA'
p1355
sg10
S'38.8514972222'
p1356
sg12
S'AIRPORT'
p1357
sa(dp1358
g2
S'7I4'
p1359
sg4
S'ORLEANS'
p1360
sg6
S'-86.4430416667'
p1361
sg8
S'INDIANA'
p1362
sg10
S'38.6583861111'
p1363
sg12
S'AIRPORT'
p1364
sa(dp1365
g2
S'I42'
p1366
sg4
S'PAOLI MUNI'
p1367
sg6
S'-86.4646444444'
p1368
sg8
S'INDIANA'
p1369
sg10
S'38.5854583333'
p1370
sg12
S'AIRPORT'
p1371
sa(dp1372
g2
S'GUS'
p1373
sg4
S'GRISSOM ARB'
p1374
sg6
S'-86.1521166667'
p1375
sg8
S'INDIANA'
p1376
sg10
S'40.6480916667'
p1377
sg12
S'AIRPORT'
p1378
sa(dp1379
g2
S'43I'
p1380
sg4
S'MISSISSINEWA RESERVOIR LANDING AREA'
p1381
sg6
S'-85.9324861111'
p1382
sg8
S'INDIANA'
p1383
sg10
S'40.7036527778'
p1384
sg12
S'SEAPLANE BASE'
p1385
sa(dp1386
g2
S'I76'
p1387
sg4
S'PERU MUNI'
p1388
sg6
S'-86.1464333333'
p1389
sg8
S'INDIANA'
p1390
sg10
S'40.7857722222'
p1391
sg12
S'AIRPORT'
p1392
sa(dp1393
g2
S'C65'
p1394
sg4
S'PLYMOUTH MUNI'
p1395
sg6
S'-86.3002555556'
p1396
sg8
S'INDIANA'
p1397
sg10
S'41.3651305556'
p1398
sg12
S'AIRPORT'
p1399
sa(dp1400
g2
S'PLD'
p1401
sg4
S'PORTLAND MUNI'
p1402
sg6
S'-84.9890277778'
p1403
sg8
S'INDIANA'
p1404
sg10
S'40.4515833333'
p1405
sg12
S'AIRPORT'
p1406
sa(dp1407
g2
S'RZL'
p1408
sg4
S'JASPER COUNTY'
p1409
sg6
S'-87.1826472222'
p1410
sg8
S'INDIANA'
p1411
sg10
S'40.9478222222'
p1412
sg12
S'AIRPORT'
p1413
sa(dp1414
g2
S'RID'
p1415
sg4
S'RICHMOND MUNI'
p1416
sg6
S'-84.8426944444'
p1417
sg8
S'INDIANA'
p1418
sg10
S'39.7560833333'
p1419
sg12
S'AIRPORT'
p1420
sa(dp1421
g2
S'RCR'
p1422
sg4
S'FULTON COUNTY'
p1423
sg6
S'-86.1817027778'
p1424
sg8
S'INDIANA'
p1425
sg10
S'41.0655472222'
p1426
sg12
S'AIRPORT'
p1427
sa(dp1428
g2
S'I83'
p1429
sg4
S'SALEM MUNI'
p1430
sg6
S'-86.1399777778'
p1431
sg8
S'INDIANA'
p1432
sg10
S'38.602'
p1433
sg12
S'AIRPORT'
p1434
sa(dp1435
g2
S'3R8'
p1436
sg4
S'SCOTTSBURG'
p1437
sg6
S'-85.7902444444'
p1438
sg8
S'INDIANA'
p1439
sg10
S'38.6572805556'
p1440
sg12
S'AIRPORT'
p1441
sa(dp1442
g2
S'SER'
p1443
sg4
S'FREEMAN MUNI'
p1444
sg6
S'-85.9083527778'
p1445
sg8
S'INDIANA'
p1446
sg10
S'38.9246972222'
p1447
sg12
S'AIRPORT'
p1448
sa(dp1449
g2
S'GEZ'
p1450
sg4
S'SHELBYVILLE MUNI'
p1451
sg6
S'-85.8048055556'
p1452
sg8
S'INDIANA'
p1453
sg10
S'39.5831388889'
p1454
sg12
S'AIRPORT'
p1455
sa(dp1456
g2
S'5I4'
p1457
sg4
S'SHERIDAN'
p1458
sg6
S'-86.2172972222'
p1459
sg8
S'INDIANA'
p1460
sg10
S'40.177925'
p1461
sg12
S'AIRPORT'
p1462
sa(dp1463
g2
S'SBN'
p1464
sg4
S'SOUTH BEND INTL'
p1465
sg6
S'-86.3173333333'
p1466
sg8
S'INDIANA'
p1467
sg10
S'41.7082222222'
p1468
sg12
S'AIRPORT'
p1469
sa(dp1470
g2
S'SIV'
p1471
sg4
S'SULLIVAN COUNTY'
p1472
sg6
S'-87.4483277778'
p1473
sg8
S'INDIANA'
p1474
sg10
S'39.1147111111'
p1475
sg12
S'AIRPORT'
p1476
sa(dp1477
g2
S'99D'
p1478
sg4
S'DEWART LAKE'
p1479
sg6
S'-85.7727777778'
p1480
sg8
S'INDIANA'
p1481
sg10
S'41.3719444444'
p1482
sg12
S'SEAPLANE BASE'
p1483
sa(dp1484
g2
S'01D'
p1485
sg4
S'LAKE WAWASEE'
p1486
sg6
S'-85.7061111111'
p1487
sg8
S'INDIANA'
p1488
sg10
S'41.4036111111'
p1489
sg12
S'SEAPLANE BASE'
p1490
sa(dp1491
g2
S'TEL'
p1492
sg4
S'PERRY COUNTY MUNI'
p1493
sg6
S'-86.6924166667'
p1494
sg8
S'INDIANA'
p1495
sg10
S'38.0188611111'
p1496
sg12
S'AIRPORT'
p1497
sa(dp1498
g2
S'3I3'
p1499
sg4
S'SKY KING'
p1500
sg6
S'-87.37735'
p1501
sg8
S'INDIANA'
p1502
sg10
S'39.5477861111'
p1503
sg12
S'AIRPORT'
p1504
sa(dp1505
g2
S'HUF'
p1506
sg4
S'TERRE HAUTE INTL-HULMAN FIELD'
p1507
sg6
S'-87.3075833333'
p1508
sg8
S'INDIANA'
p1509
sg10
S'39.4514722222'
p1510
sg12
S'AIRPORT'
p1511
sa(dp1512
g2
S'VPZ'
p1513
sg4
S'PORTER COUNTY RGNL'
p1514
sg6
S'-87.0070833333'
p1515
sg8
S'INDIANA'
p1516
sg10
S'41.4539722222'
p1517
sg12
S'AIRPORT'
p1518
sa(dp1519
g2
S'8I1'
p1520
sg4
S'ROBINSON'
p1521
sg6
S'-85.1982861111'
p1522
sg8
S'INDIANA'
p1523
sg10
S'38.6945055556'
p1524
sg12
S'AIRPORT'
p1525
sa(dp1526
g2
S'IWH'
p1527
sg4
S'WABASH MUNI'
p1528
sg6
S'-85.79875'
p1529
sg8
S'INDIANA'
p1530
sg10
S'40.7619722222'
p1531
sg12
S'AIRPORT'
p1532
sa(dp1533
g2
S'01B'
p1534
sg4
S'TIPPECANOE'
p1535
sg6
S'-85.7675'
p1536
sg8
S'INDIANA'
p1537
sg10
S'41.3330555556'
p1538
sg12
S'SEAPLANE BASE'
p1539
sa(dp1540
g2
S'ASW'
p1541
sg4
S'WARSAW MUNI'
p1542
sg6
S'-85.8400555556'
p1543
sg8
S'INDIANA'
p1544
sg10
S'41.2746944444'
p1545
sg12
S'AIRPORT'
p1546
sa(dp1547
g2
S'DCY'
p1548
sg4
S'DAVIESS COUNTY'
p1549
sg6
S'-87.1297305556'
p1550
sg8
S'INDIANA'
p1551
sg10
S'38.7004222222'
p1552
sg12
S'AIRPORT'
p1553
sa(dp1554
g2
S'4C2'
p1555
sg4
S'WALKER/ROWE WATERLOO'
p1556
sg6
S'-84.9816305556'
p1557
sg8
S'INDIANA'
p1558
sg10
S'41.4311611111'
p1559
sg12
S'AIRPORT'
p1560
sa(dp1561
g2
S'I72'
p1562
sg4
S'WESTFIELD'
p1563
sg6
S'-86.1577666667'
p1564
sg8
S'INDIANA'
p1565
sg10
S'40.048925'
p1566
sg12
S'AIRPORT'
p1567
sa(dp1568
g2
S'RWN'
p1569
sg4
S'ARENS FIELD'
p1570
sg6
S'-86.6128694444'
p1571
sg8
S'INDIANA'
p1572
sg10
S'41.0922611111'
p1573
sg12
S'AIRPORT'
p1574
sa(dp1575
g2
S'I22'
p1576
sg4
S'RANDOLPH COUNTY'
p1577
sg6
S'-84.9293888889'
p1578
sg8
S'INDIANA'
p1579
sg10
S'40.1676944444'
p1580
sg12
S'AIRPORT'
p1581
sa(dp1582
g2
S'01L'
p1583
sg4
S'BASS LAKE'
p1584
sg6
S'-86.5816666667'
p1585
sg8
S'INDIANA'
p1586
sg10
S'41.2288888889'
p1587
sg12
S'SEAPLANE BASE'
p1588
sa(dp1589
g2
S'02D'
p1590
sg4
S'WINONA LAKE'
p1591
sg6
S'-85.8305555556'
p1592
sg8
S'INDIANA'
p1593
sg10
S'41.2230555556'
p1594
sg12
S'SEAPLANE BASE'
p1595
sa(dp1596
g2
S'ADG'
p1597
sg4
S'LENAWEE COUNTY'
p1598
sg6
S'-84.0773055556'
p1599
sg8
S'MICHIGAN'
p1600
sg10
S'41.8676722222'
p1601
sg12
S'AIRPORT'
p1602
sa(dp1603
g2
S'35D'
p1604
sg4
S'PADGHAM FIELD'
p1605
sg6
S'-85.8237777778'
p1606
sg8
S'MICHIGAN'
p1607
sg10
S'42.5304361111'
p1608
sg12
S'AIRPORT'
p1609
sa(dp1610
g2
S'AMN'
p1611
sg4
S'GRATIOT COMMUNITY'
p1612
sg6
S'-84.6879444444'
p1613
sg8
S'MICHIGAN'
p1614
sg10
S'43.3221388889'
p1615
sg12
S'AIRPORT'
p1616
sa(dp1617
g2
S'APN'
p1618
sg4
S'ALPENA COUNTY RGNL'
p1619
sg6
S'-83.5603055556'
p1620
sg8
S'MICHIGAN'
p1621
sg10
S'45.0780833333'
p1622
sg12
S'AIRPORT'
p1623
sa(dp1624
g2
S'ARB'
p1625
sg4
S'ANN ARBOR MUNI'
p1626
sg6
S'-83.7456055556'
p1627
sg8
S'MICHIGAN'
p1628
sg10
S'42.2229833333'
p1629
sg12
S'AIRPORT'
p1630
sa(dp1631
g2
S'Y93'
p1632
sg4
S'ATLANTA MUNI'
p1633
sg6
S'-84.1272333333'
p1634
sg8
S'MICHIGAN'
p1635
sg10
S'44.9968944444'
p1636
sg12
S'AIRPORT'
p1637
sa(dp1638
g2
S'39G'
p1639
sg4
S'AVOCA'
p1640
sg6
S'-82.6693666667'
p1641
sg8
S'MICHIGAN'
p1642
sg10
S'43.030025'
p1643
sg12
S'AIRPORT'
p1644
sa(dp1645
g2
S'E53'
p1646
sg4
S'ENGLER FIELD'
p1647
sg6
S'-83.0467916667'
p1648
sg8
S'MICHIGAN'
p1649
sg10
S'43.8462333333'
p1650
sg12
S'AIRPORT'
p1651
sa(dp1652
g2
S'BAX'
p1653
sg4
S'HURON COUNTY MEMORIAL'
p1654
sg6
S'-82.9854166667'
p1655
sg8
S'MICHIGAN'
p1656
sg10
S'43.7802222222'
p1657
sg12
S'AIRPORT'
p1658
sa(dp1659
g2
S'7D3'
p1660
sg4
S'BALDWIN MUNI'
p1661
sg6
S'-85.8420805556'
p1662
sg8
S'MICHIGAN'
p1663
sg10
S'43.8755333333'
p1664
sg12
S'AIRPORT'
p1665
sa(dp1666
g2
S'4M4'
p1667
sg4
S'SHADY LAWN FIELD'
p1668
sg6
S'-84.3812638889'
p1669
sg8
S'MICHIGAN'
p1670
sg10
S'43.1286388889'
p1671
sg12
S'AIRPORT'
p1672
sa(dp1673
g2
S'41G'
p1674
sg4
S'UNIVERSITY AIRPARK'
p1675
sg6
S'-84.4791444444'
p1676
sg8
S'MICHIGAN'
p1677
sg10
S'42.8403111111'
p1678
sg12
S'AIRPORT'
p1679
sa(dp1680
g2
S'BTL'
p1681
sg4
S'W K KELLOGG'
p1682
sg6
S'-85.2500888889'
p1683
sg8
S'MICHIGAN'
p1684
sg10
S'42.3064722222'
p1685
sg12
S'AIRPORT'
p1686
sa(dp1687
g2
S'3CM'
p1688
sg4
S'JAMES CLEMENTS MUNI'
p1689
sg6
S'-83.8954722222'
p1690
sg8
S'MICHIGAN'
p1691
sg10
S'43.5469444444'
p1692
sg12
S'AIRPORT'
p1693
sa(dp1694
g2
S'SJX'
p1695
sg4
S'BEAVER ISLAND'
p1696
sg6
S'-85.5666111111'
p1697
sg8
S'MICHIGAN'
p1698
sg10
S'45.6922222222'
p1699
sg12
S'AIRPORT'
p1700
sa(dp1701
g2
S'6Y8'
p1702
sg4
S'WELKE'
p1703
sg6
S'-85.5203444444'
p1704
sg8
S'MICHIGAN'
p1705
sg10
S'45.7211611111'
p1706
sg12
S'AIRPORT'
p1707
sa(dp1708
g2
S'ACB'
p1709
sg4
S'ANTRIM COUNTY'
p1710
sg6
S'-85.1983611111'
p1711
sg8
S'MICHIGAN'
p1712
sg10
S'44.9885833333'
p1713
sg12
S'AIRPORT'
p1714
sa(dp1715
g2
S'43G'
p1716
sg4
S'BELLEVILLE'
p1717
sg6
S'-83.5457694444'
p1718
sg8
S'MICHIGAN'
p1719
sg10
S'42.1767055556'
p1720
sg12
S'AIRPORT'
p1721
sa(dp1722
g2
S'BEH'
p1723
sg4
S'SOUTHWEST MICHIGAN RGNL'
p1724
sg6
S'-86.4261333333'
p1725
sg8
S'MICHIGAN'
p1726
sg10
S'42.1285277778'
p1727
sg12
S'AIRPORT'
p1728
sa(dp1729
g2
S'C20'
p1730
sg4
S'ANDREWS UNIVERSITY AIRPARK'
p1731
sg6
S'-86.3680833333'
p1732
sg8
S'MICHIGAN'
p1733
sg10
S'41.9510555556'
p1734
sg12
S'AIRPORT'
p1735
sa(dp1736
g2
S'RQB'
p1737
sg4
S'ROBEN-HOOD'
p1738
sg6
S'-85.5040555556'
p1739
sg8
S'MICHIGAN'
p1740
sg10
S'43.7226388889'
p1741
sg12
S'AIRPORT'
p1742
sa(dp1743
g2
S'44G'
p1744
sg4
S'BETZ'
p1745
sg6
S'-83.8707722222'
p1746
sg8
S'MICHIGAN'
p1747
sg10
S'41.8556027778'
p1748
sg12
S'AIRPORT'
p1749
sa(dp1750
g2
S'6Y1'
p1751
sg4
S'BOIS BLANC ISLAND'
p1752
sg6
S'-84.5038138889'
p1753
sg8
S'MICHIGAN'
p1754
sg10
S'45.7662972222'
p1755
sg12
S'AIRPORT'
p1756
sa(dp1757
g2
S'N98'
p1758
sg4
S'BOYNE CITY MUNI'
p1759
sg6
S'-84.9898833333'
p1760
sg8
S'MICHIGAN'
p1761
sg10
S'45.2088111111'
p1762
sg12
S'AIRPORT'
p1763
sa(dp1764
g2
S'BFA'
p1765
sg4
S'BOYNE MOUNTAIN'
p1766
sg6
S'-84.9241138889'
p1767
sg8
S'MICHIGAN'
p1768
sg10
S'45.1658388889'
p1769
sg12
S'AIRPORT'
p1770
sa(dp1771
g2
S'45G'
p1772
sg4
S'BRIGHTON'
p1773
sg6
S'-83.7785277778'
p1774
sg8
S'MICHIGAN'
p1775
sg10
S'42.5698138889'
p1776
sg12
S'AIRPORT'
p1777
sa(dp1778
g2
S'6G8'
p1779
sg4
S'SHAMROCK FLD'
p1780
sg6
S'-84.2407805556'
p1781
sg8
S'MICHIGAN'
p1782
sg10
S'42.0950388889'
p1783
sg12
S'AIRPORT'
p1784
sa(dp1785
g2
S'CAD'
p1786
sg4
S'WEXFORD COUNTY'
p1787
sg6
S'-85.4189166667'
p1788
sg8
S'MICHIGAN'
p1789
sg10
S'44.2753333333'
p1790
sg12
S'AIRPORT'
p1791
sa(dp1792
g2
S'W87'
p1793
sg4
S'BUZZWICK'
p1794
sg6
S'-83.3735944444'
p1795
sg8
S'MICHIGAN'
p1796
sg10
S'42.0174527778'
p1797
sg12
S'AIRPORT'
p1798
sa(dp1799
g2
S'CFS'
p1800
sg4
S'TUSCOLA AREA'
p1801
sg6
S'-83.4454444444'
p1802
sg8
S'MICHIGAN'
p1803
sg10
S'43.4588611111'
p1804
sg12
S'AIRPORT'
p1805
sa(dp1806
g2
S'CVX'
p1807
sg4
S'CHARLEVOIX MUNI'
p1808
sg6
S'-85.2753055556'
p1809
sg8
S'MICHIGAN'
p1810
sg10
S'45.3048611111'
p1811
sg12
S'AIRPORT'
p1812
sa(dp1813
g2
S'FPK'
p1814
sg4
S'FITCH H BEACH'
p1815
sg6
S'-84.8121111111'
p1816
sg8
S'MICHIGAN'
p1817
sg10
S'42.5740833333'
p1818
sg12
S'AIRPORT'
p1819
sa(dp1820
g2
S'49G'
p1821
sg4
S'WEND VALLEY'
p1822
sg6
S'-84.9090111111'
p1823
sg8
S'MICHIGAN'
p1824
sg10
S'42.57795'
p1825
sg12
S'AIRPORT'
p1826
sa(dp1827
g2
S'SLH'
p1828
sg4
S'CHEBOYGAN COUNTY'
p1829
sg6
S'-84.5193027778'
p1830
sg8
S'MICHIGAN'
p1831
sg10
S'45.6537861111'
p1832
sg12
S'AIRPORT'
p1833
sa(dp1834
g2
S'2M7'
p1835
sg4
S"HOFFMAN'S BLACK MOUNTAIN AERODROME"
p1836
sg6
S'-84.3080555556'
p1837
sg8
S'MICHIGAN'
p1838
sg10
S'45.5319444444'
p1839
sg12
S'AIRPORT'
p1840
sa(dp1841
g2
S'50G'
p1842
sg4
S'HOWARD NIXON MEMORIAL'
p1843
sg6
S'-84.1332916667'
p1844
sg8
S'MICHIGAN'
p1845
sg10
S'43.181975'
p1846
sg12
S'AIRPORT'
p1847
sa(dp1848
g2
S'48D'
p1849
sg4
S'CLARE MUNI'
p1850
sg6
S'-84.7402222222'
p1851
sg8
S'MICHIGAN'
p1852
sg10
S'43.8344444444'
p1853
sg12
S'AIRPORT'
p1854
sa(dp1855
g2
S'7N4'
p1856
sg4
S'HONEY ACRES'
p1857
sg6
S'-83.9860527778'
p1858
sg8
S'MICHIGAN'
p1859
sg10
S'42.0778194444'
p1860
sg12
S'AIRPORT'
p1861
sa(dp1862
g2
S'51G'
p1863
sg4
S'ALKAY'
p1864
sg6
S'-83.7969527778'
p1865
sg8
S'MICHIGAN'
p1866
sg10
S'43.1434444444'
p1867
sg12
S'AIRPORT'
p1868
sa(dp1869
g2
S'OEB'
p1870
sg4
S'BRANCH COUNTY MEMORIAL'
p1871
sg6
S'-85.0522916667'
p1872
sg8
S'MICHIGAN'
p1873
sg10
S'41.9335666667'
p1874
sg12
S'AIRPORT'
p1875
sa(dp1876
g2
S'56M'
p1877
sg4
S'MILLSTREAM AIRPARK'
p1878
sg6
S'-84.0445722222'
p1879
sg8
S'MICHIGAN'
p1880
sg10
S'42.963025'
p1881
sg12
S'AIRPORT'
p1882
sa(dp1883
g2
S'55G'
p1884
sg4
S'ARNOLD FIELD'
p1885
sg6
S'-82.6078638889'
p1886
sg8
S'MICHIGAN'
p1887
sg10
S'43.2978'
p1888
sg12
S'AIRPORT'
p1889
sa(dp1890
g2
S'50D'
p1891
sg4
S'IRON COUNTY'
p1892
sg6
S'-88.274025'
p1893
sg8
S'MICHIGAN'
p1894
sg10
S'46.0090777778'
p1895
sg12
S'AIRPORT'
p1896
sa(dp1897
g2
S'6G0'
p1898
sg4
S'ATHELONE WILLIAMS MEMORIAL'
p1899
sg6
S'-83.5296722222'
p1900
sg8
S'MICHIGAN'
p1901
sg10
S'43.0291361111'
p1902
sg12
S'AIRPORT'
p1903
sa(dp1904
g2
S'DET'
p1905
sg4
S'COLEMAN A YOUNG MUNI'
p1906
sg6
S'-83.0101805556'
p1907
sg8
S'MICHIGAN'
p1908
sg10
S'42.409325'
p1909
sg12
S'AIRPORT'
p1910
sa(dp1911
g2
S'DTW'
p1912
sg4
S'DETROIT METROPOLITAN WAYNE COUNTY'
p1913
sg6
S'-83.3533888889'
p1914
sg8
S'MICHIGAN'
p1915
sg10
S'42.2124166667'
p1916
sg12
S'AIRPORT'
p1917
sa(dp1918
g2
S'YIP'
p1919
sg4
S'WILLOW RUN'
p1920
sg6
S'-83.5308888889'
p1921
sg8
S'MICHIGAN'
p1922
sg10
S'42.2400277778'
p1923
sg12
S'AIRPORT'
p1924
sa(dp1925
g2
S'ONZ'
p1926
sg4
S'GROSSE ILE MUNI'
p1927
sg6
S'-83.1614666667'
p1928
sg8
S'MICHIGAN'
p1929
sg10
S'42.0990777778'
p1930
sg12
S'AIRPORT'
p1931
sa(dp1932
g2
S'200000000'
p1933
sg4
S'CACKLEBERRY'
p1934
sg6
S'-83.8685416667'
p1935
sg8
S'MICHIGAN'
p1936
sg10
S'42.425125'
p1937
sg12
S'AIRPORT'
p1938
sa(dp1939
g2
S'C91'
p1940
sg4
S'DOWAGIAC MUNI'
p1941
sg6
S'-86.1282777778'
p1942
sg8
S'MICHIGAN'
p1943
sg10
S'41.9929166667'
p1944
sg12
S'AIRPORT'
p1945
sa(dp1946
g2
S'DRM'
p1947
sg4
S'DRUMMOND ISLAND'
p1948
sg6
S'-83.7439333333'
p1949
sg8
S'MICHIGAN'
p1950
sg10
S'46.0093111111'
p1951
sg12
S'AIRPORT'
p1952
sa(dp1953
g2
S'D22'
p1954
sg4
S'YACHT HAVEN'
p1955
sg6
S'-83.7525138889'
p1956
sg8
S'MICHIGAN'
p1957
sg10
S'46.0247944444'
p1958
sg12
S'SEAPLANE BASE'
p1959
sa(dp1960
g2
S'29M'
p1961
sg4
S'WAITE FIELD'
p1962
sg6
S'-83.9320416667'
p1963
sg8
S'MICHIGAN'
p1964
sg10
S'42.8907222222'
p1965
sg12
S'AIRPORT'
p1966
sa(dp1967
g2
S'Y94'
p1968
sg4
S'EAST JORDAN CITY'
p1969
sg6
S'-85.1068138889'
p1970
sg8
S'MICHIGAN'
p1971
sg10
S'45.1301833333'
p1972
sg12
S'AIRPORT'
p1973
sa(dp1974
g2
S'6D9'
p1975
sg4
S'IOSCO COUNTY'
p1976
sg6
S'-83.4223055556'
p1977
sg8
S'MICHIGAN'
p1978
sg10
S'44.3128333333'
p1979
sg12
S'AIRPORT'
p1980
sa(dp1981
g2
S'59M'
p1982
sg4
S'TORCHPORT'
p1983
sg6
S'-85.3566805556'
p1984
sg8
S'MICHIGAN'
p1985
sg10
S'45.0533861111'
p1986
sg12
S'AIRPORT'
p1987
sa(dp1988
g2
S'60G'
p1989
sg4
S'SKYWAY ESTATES'
p1990
sg6
S'-84.6514805556'
p1991
sg8
S'MICHIGAN'
p1992
sg10
S'42.5838083333'
p1993
sg12
S'AIRPORT'
p1994
sa(dp1995
g2
S'34U'
p1996
sg4
S'YUBA'
p1997
sg6
S'-85.4311805556'
p1998
sg8
S'MICHIGAN'
p1999
sg10
S'44.8388888889'
p2000
sg12
S'AIRPORT'
p2001
sa(dp2002
g2
S'68R'
p2003
sg4
S'HAMP'
p2004
sg6
S'-84.8008444444'
p2005
sg8
S'MICHIGAN'
p2006
sg10
S'43.399475'
p2007
sg12
S'AIRPORT'
p2008
sa(dp2009
g2
S'200'
p2010
sg4
S"SHARPE'S STRIP"
p2011
sg6
S'-82.7759166667'
p2012
sg8
S'MICHIGAN'
p2013
sg10
S'42.9516111111'
p2014
sg12
S'AIRPORT'
p2015
sa(dp2016
g2
S'Y87'
p2017
sg4
S'EMPIRE'
p2018
sg6
S'-86.0027694444'
p2019
sg8
S'MICHIGAN'
p2020
sg10
S'44.7905138889'
p2021
sg12
S'AIRPORT'
p2022
sa(dp2023
g2
S'ESC'
p2024
sg4
S'DELTA COUNTY'
p2025
sg6
S'-87.0937222222'
p2026
sg8
S'MICHIGAN'
p2027
sg10
S'45.7226666667'
p2028
sg12
S'AIRPORT'
p2029
sa(dp2030
g2
S'9C8'
p2031
sg4
S'EVART MUNI'
p2032
sg6
S'-85.28475'
p2033
sg8
S'MICHIGAN'
p2034
sg10
S'43.8948611111'
p2035
sg12
S'AIRPORT'
p2036
sa(dp2037
g2
S'FNT'
p2038
sg4
S'BISHOP INTL'
p2039
sg6
S'-83.74475'
p2040
sg8
S'MICHIGAN'
p2041
sg10
S'42.9654722222'
p2042
sg12
S'AIRPORT'
p2043
sa(dp2044
g2
S'3DA'
p2045
sg4
S'DALTON'
p2046
sg6
S'-83.8048972222'
p2047
sg8
S'MICHIGAN'
p2048
sg10
S'43.0525'
p2049
sg12
S'AIRPORT'
p2050
sa(dp2051
g2
S'65G'
p2052
sg4
S'MAPLE GROVE'
p2053
sg6
S'-84.0624583333'
p2054
sg8
S'MICHIGAN'
p2055
sg10
S'42.7172555556'
p2056
sg12
S'AIRPORT'
p2057
sa(dp2058
g2
S'E66'
p2059
sg4
S'MAPLE GROVE'
p2060
sg6
S'-84.0619444444'
p2061
sg8
S'MICHIGAN'
p2062
sg10
S'42.7170833333'
p2063
sg12
S'HELIPORT'
p2064
sa(dp2065
g2
S'66G'
p2066
sg4
S"WM 'TINY' ZEHNDER FIELD"
p2067
sg6
S'-83.7096833333'
p2068
sg8
S'MICHIGAN'
p2069
sg10
S'43.3139111111'
p2070
sg12
S'AIRPORT'
p2071
sa(dp2072
g2
S'FKS'
p2073
sg4
S'FRANKFORT DOW MEMORIAL FIELD'
p2074
sg6
S'-86.2008083333'
p2075
sg8
S'MICHIGAN'
p2076
sg10
S'44.6252194444'
p2077
sg12
S'AIRPORT'
p2078
sa(dp2079
g2
S'FFX'
p2080
sg4
S'FREMONT MUNI'
p2081
sg6
S'-85.9948888889'
p2082
sg8
S'MICHIGAN'
p2083
sg10
S'43.4393055556'
p2084
sg12
S'AIRPORT'
p2085
sa(dp2086
g2
S'39Z'
p2087
sg4
S'FLYING-A-RANCH'
p2088
sg6
S'-86.1236611111'
p2089
sg8
S'MICHIGAN'
p2090
sg10
S'43.1050166667'
p2091
sg12
S'AIRPORT'
p2092
sa(dp2093
g2
S'GLR'
p2094
sg4
S'GAYLORD RGNL'
p2095
sg6
S'-84.7034444444'
p2096
sg8
S'MICHIGAN'
p2097
sg10
S'45.0130277778'
p2098
sg12
S'AIRPORT'
p2099
sa(dp2100
g2
S'4Y4'
p2101
sg4
S'LAKES OF THE NORTH'
p2102
sg6
S'-84.8753388889'
p2103
sg8
S'MICHIGAN'
p2104
sg10
S'44.9118055556'
p2105
sg12
S'AIRPORT'
p2106
sa(dp2107
g2
S'68G'
p2108
sg4
S'DUFORD FIELD'
p2109
sg6
S'-83.6263444444'
p2110
sg8
S'MICHIGAN'
p2111
sg10
S'43.125025'
p2112
sg12
S'AIRPORT'
p2113
sa(dp2114
g2
S'GDW'
p2115
sg4
S'GLADWIN ZETTEL MEMORIAL'
p2116
sg6
S'-84.4750194444'
p2117
sg8
S'MICHIGAN'
p2118
sg10
S'43.9705888889'
p2119
sg12
S'AIRPORT'
p2120
sa(dp2121
g2
S'5M6'
p2122
sg4
S'SUGAR SPRINGS AIRPARK'
p2123
sg6
S'-84.436975'
p2124
sg8
S'MICHIGAN'
p2125
sg10
S'44.1403694444'
p2126
sg12
S'AIRPORT'
p2127
sa(dp2128
g2
S'3GM'
p2129
sg4
S'GRAND HAVEN MEMORIAL AIRPARK'
p2130
sg6
S'-86.1981666667'
p2131
sg8
S'MICHIGAN'
p2132
sg10
S'43.0340555556'
p2133
sg12
S'AIRPORT'
p2134
sa(dp2135
g2
S'4D0'
p2136
sg4
S'ABRAMS MUNI'
p2137
sg6
S'-84.7331361111'
p2138
sg8
S'MICHIGAN'
p2139
sg10
S'42.7748805556'
p2140
sg12
S'AIRPORT'
p2141
sa(dp2142
g2
S'Y98'
p2143
sg4
S'GRAND MARAIS'
p2144
sg6
S'-85.9200833333'
p2145
sg8
S'MICHIGAN'
p2146
sg10
S'46.6203638889'
p2147
sg12
S'AIRPORT'
p2148
sa(dp2149
g2
S'GRR'
p2150
sg4
S'GERALD R FORD INTL'
p2151
sg6
S'-85.5228055556'
p2152
sg8
S'MICHIGAN'
p2153
sg10
S'42.8808333333'
p2154
sg12
S'AIRPORT'
p2155
sa(dp2156
g2
S'GOV'
p2157
sg4
S'GRAYLING AAF'
p2158
sg6
S'-84.7288611111'
p2159
sg8
S'MICHIGAN'
p2160
sg10
S'44.6803333333'
p2161
sg12
S'AIRPORT'
p2162
sa(dp2163
g2
S'6D6'
p2164
sg4
S'GREENVILLE MUNI'
p2165
sg6
S'-85.2538611111'
p2166
sg8
S'MICHIGAN'
p2167
sg10
S'43.1421388889'
p2168
sg12
S'AIRPORT'
p2169
sa(dp2170
g2
S'69G'
p2171
sg4
S'RICHMOND FIELD'
p2172
sg6
S'-84.0666166667'
p2173
sg8
S'MICHIGAN'
p2174
sg10
S'42.4417'
p2175
sg12
S'AIRPORT'
p2176
sa(dp2177
g2
S'H80'
p2178
sg4
S'FIELD OF DREAMS'
p2179
sg6
S'-83.7626666667'
p2180
sg8
S'MICHIGAN'
p2181
sg10
S'44.3646944444'
p2182
sg12
S'AIRPORT'
p2183
sa(dp2184
g2
S'M47'
p2185
sg4
S'SAGE LAKE SPB'
p2186
sg6
S'-83.9422222222'
p2187
sg8
S'MICHIGAN'
p2188
sg10
S'44.35'
p2189
sg12
S'SEAPLANE BASE'
p2190
sa(dp2191
g2
S'CMX'
p2192
sg4
S'HOUGHTON COUNTY MEMORIAL'
p2193
sg6
S'-88.4890583333'
p2194
sg8
S'MICHIGAN'
p2195
sg10
S'47.1684166667'
p2196
sg12
S'AIRPORT'
p2197
sa(dp2198
g2
S'MGN'
p2199
sg4
S'HARBOR SPRINGS'
p2200
sg6
S'-84.9134722222'
p2201
sg8
S'MICHIGAN'
p2202
sg10
S'45.4254722222'
p2203
sg12
S'AIRPORT'
p2204
sa(dp2205
g2
S'4Y9'
p2206
sg4
S'EAGLES LANDING'
p2207
sg6
S'-85.7722888889'
p2208
sg8
S'MICHIGAN'
p2209
sg10
S'44.3083361111'
p2210
sg12
S'AIRPORT'
p2211
sa(dp2212
g2
S'80D'
p2213
sg4
S'CLARE COUNTY'
p2214
sg6
S'-84.8131333333'
p2215
sg8
S'MICHIGAN'
p2216
sg10
S'44.0522777778'
p2217
sg12
S'AIRPORT'
p2218
sa(dp2219
g2
S'5Y0'
p2220
sg4
S'HARRISVILLE'
p2221
sg6
S'-83.3051111111'
p2222
sg8
S'MICHIGAN'
p2223
sg10
S'44.6682222222'
p2224
sg12
S'AIRPORT'
p2225
sa(dp2226
g2
S'Z92'
p2227
sg4
S'HARSENS ISLAND'
p2228
sg6
S'-82.5756222222'
p2229
sg8
S'MICHIGAN'
p2230
sg10
S'42.5894166667'
p2231
sg12
S'AIRPORT'
p2232
sa(dp2233
g2
S'HD6'
p2234
sg4
S'HARSENS ISLAND'
p2235
sg6
S'-82.57195'
p2236
sg8
S'MICHIGAN'
p2237
sg10
S'42.5922277778'
p2238
sg12
S'HELIPORT'
p2239
sa(dp2240
g2
S'C04'
p2241
sg4
S'OCEANA COUNTY'
p2242
sg6
S'-86.3290638889'
p2243
sg8
S'MICHIGAN'
p2244
sg10
S'43.6416333333'
p2245
sg12
S'AIRPORT'
p2246
sa(dp2247
g2
S'9D9'
p2248
sg4
S'HASTINGS'
p2249
sg6
S'-85.3462055556'
p2250
sg8
S'MICHIGAN'
p2251
sg10
S'42.6635472222'
p2252
sg12
S'AIRPORT'
p2253
sa(dp2254
g2
S'5Y1'
p2255
sg4
S'ALBERT J LINDBERG'
p2256
sg6
S'-84.4197555556'
p2257
sg8
S'MICHIGAN'
p2258
sg10
S'46.0358472222'
p2259
sg12
S'AIRPORT'
p2260
sa(dp2261
g2
S'13D'
p2262
sg4
S'PONDEROSA'
p2263
sg6
S'-83.6830833333'
p2264
sg8
S'MICHIGAN'
p2265
sg10
S'42.6291666667'
p2266
sg12
S'HELIPORT'
p2267
sa(dp2268
g2
S'Y95'
p2269
sg4
S'HILLMAN'
p2270
sg6
S'-83.9340222222'
p2271
sg8
S'MICHIGAN'
p2272
sg10
S'45.0829277778'
p2273
sg12
S'AIRPORT'
p2274
sa(dp2275
g2
S'JYM'
p2276
sg4
S'HILLSDALE MUNI'
p2277
sg6
S'-84.5866972222'
p2278
sg8
S'MICHIGAN'
p2279
sg10
S'41.9213027778'
p2280
sg12
S'AIRPORT'
p2281
sa(dp2282
g2
S'HLM'
p2283
sg4
S'PARK TOWNSHIP'
p2284
sg6
S'-86.1619861111'
p2285
sg8
S'MICHIGAN'
p2286
sg10
S'42.7959111111'
p2287
sg12
S'AIRPORT'
p2288
sa(dp2289
g2
S'BIV'
p2290
sg4
S'WEST MICHIGAN RGNL'
p2291
sg6
S'-86.1078333333'
p2292
sg8
S'MICHIGAN'
p2293
sg10
S'42.7427777778'
p2294
sg12
S'AIRPORT'
p2295
sa(dp2296
g2
S'HTL'
p2297
sg4
S'ROSCOMMON COUNTY - BLODGETT MEMORIAL'
p2298
sg6
S'-84.6694805556'
p2299
sg8
S'MICHIGAN'
p2300
sg10
S'44.3598666667'
p2301
sg12
S'AIRPORT'
p2302
sa(dp2303
g2
S'5Y2'
p2304
sg4
S'HOUGHTON LAKE STATE'
p2305
sg6
S'-84.7916944444'
p2306
sg8
S'MICHIGAN'
p2307
sg10
S'44.3291805556'
p2308
sg12
S'AIRPORT'
p2309
sa(dp2310
g2
S'13M'
p2311
sg4
S'AERONUT PARK'
p2312
sg6
S'-83.8586111111'
p2313
sg8
S'MICHIGAN'
p2314
sg10
S'42.6041666667'
p2315
sg12
S'BALLOONPORT'
p2316
sa(dp2317
g2
S'OZW'
p2318
sg4
S'LIVINGSTON COUNTY SPENCER J HARDY'
p2319
sg6
S'-83.9821916667'
p2320
sg8
S'MICHIGAN'
p2321
sg10
S'42.6294277778'
p2322
sg12
S'AIRPORT'
p2323
sa(dp2324
g2
S'4Y1'
p2325
sg4
S'RAETHER'
p2326
sg6
S'-83.8562916667'
p2327
sg8
S'MICHIGAN'
p2328
sg10
S'42.5651944444'
p2329
sg12
S'AIRPORT'
p2330
sa(dp2331
g2
S'Y65'
p2332
sg4
S'CALVIN CAMPBELL MUNI'
p2333
sg6
S'-84.6000333333'
p2334
sg8
S'MICHIGAN'
p2335
sg10
S'45.4083444444'
p2336
sg12
S'AIRPORT'
p2337
sa(dp2338
g2
S'Y88'
p2339
sg4
S'GREEN LAKE'
p2340
sg6
S'-85.7567888889'
p2341
sg8
S'MICHIGAN'
p2342
sg10
S'44.6057027778'
p2343
sg12
S'AIRPORT'
p2344
sa(dp2345
g2
S'Y70'
p2346
sg4
S'IONIA COUNTY'
p2347
sg6
S'-85.0605722222'
p2348
sg8
S'MICHIGAN'
p2349
sg10
S'42.9379277778'
p2350
sg12
S'AIRPORT'
p2351
sa(dp2352
g2
S'IMT'
p2353
sg4
S'FORD'
p2354
sg6
S'-88.1145555556'
p2355
sg8
S'MICHIGAN'
p2356
sg10
S'45.8183611111'
p2357
sg12
S'AIRPORT'
p2358
sa(dp2359
g2
S'Y73'
p2360
sg4
S'STAMBAUGH'
p2361
sg6
S'-88.6354916667'
p2362
sg8
S'MICHIGAN'
p2363
sg10
S'46.0787638889'
p2364
sg12
S'AIRPORT'
p2365
sa(dp2366
g2
S'IWD'
p2367
sg4
S'GOGEBIC-IRON COUNTY'
p2368
sg6
S'-90.1313888889'
p2369
sg8
S'MICHIGAN'
p2370
sg10
S'46.5274722222'
p2371
sg12
S'AIRPORT'
p2372
sa(dp2373
g2
S'M61'
p2374
sg4
S'EDWARD F JOHNSON'
p2375
sg6
S'-87.7884666667'
p2376
sg8
S'MICHIGAN'
p2377
sg10
S'46.3452166667'
p2378
sg12
S'AIRPORT'
p2379
sa(dp2380
g2
S'JXN'
p2381
sg4
S'JACKSON COUNTY-REYNOLDS FIELD'
p2382
sg6
S'-84.4604444444'
p2383
sg8
S'MICHIGAN'
p2384
sg10
S'42.2604166667'
p2385
sg12
S'AIRPORT'
p2386
sa(dp2387
g2
S'08C'
p2388
sg4
S'RIVERVIEW'
p2389
sg6
S'-85.80575'
p2390
sg8
S'MICHIGAN'
p2391
sg10
S'42.9367222222'
p2392
sg12
S'AIRPORT'
p2393
sa(dp2394
g2
S'AZO'
p2395
sg4
S'KALAMAZOO/BATTLE CREEK INTL'
p2396
sg6
S'-85.5515555556'
p2397
sg8
S'MICHIGAN'
p2398
sg10
S'42.2343888889'
p2399
sg12
S'AIRPORT'
p2400
sa(dp2401
g2
S'4N0'
p2402
sg4
S"NEWMAN'S"
p2403
sg6
S'-85.7500083333'
p2404
sg8
S'MICHIGAN'
p2405
sg10
S'42.288925'
p2406
sg12
S'AIRPORT'
p2407
sa(dp2408
g2
S'Y89'
p2409
sg4
S'KALKASKA CITY'
p2410
sg6
S'-85.203125'
p2411
sg8
S'MICHIGAN'
p2412
sg10
S'44.7251833333'
p2413
sg12
S'AIRPORT'
p2414
sa(dp2415
g2
S'24M'
p2416
sg4
S'WILDERNESS AIRPARK'
p2417
sg6
S'-85.7117083333'
p2418
sg8
S'MICHIGAN'
p2419
sg10
S'43.2447444444'
p2420
sg12
S'AIRPORT'
p2421
sa(dp2422
g2
S'15W'
p2423
sg4
S'DENNIS FARMS'
p2424
sg6
S'-84.3922222222'
p2425
sg8
S'MICHIGAN'
p2426
sg10
S'42.8944166667'
p2427
sg12
S'AIRPORT'
p2428
sa(dp2429
g2
S'Y91'
p2430
sg4
S'HOME ACRES SKY RANCH'
p2431
sg6
S'-85.1711527778'
p2432
sg8
S'MICHIGAN'
p2433
sg10
S'44.3202861111'
p2434
sg12
S'AIRPORT'
p2435
sa(dp2436
g2
S'D15'
p2437
sg4
S'LAKE ISABELLA - CAL BREWER MEMORIAL'
p2438
sg6
S'-84.9819666667'
p2439
sg8
S'MICHIGAN'
p2440
sg10
S'43.6444722222'
p2441
sg12
S'AIRPORT'
p2442
sa(dp2443
g2
S'13C'
p2444
sg4
S'LAKEVIEW-GRIFFITH FIELD'
p2445
sg6
S'-85.2646388889'
p2446
sg8
S'MICHIGAN'
p2447
sg10
S'43.45225'
p2448
sg12
S'AIRPORT'
p2449
sa(dp2450
g2
S'DUH'
p2451
sg4
S'TOLEDO SUBURBAN'
p2452
sg6
S'-83.6557638889'
p2453
sg8
S'MICHIGAN'
p2454
sg10
S'41.735875'
p2455
sg12
S'AIRPORT'
p2456
sa(dp2457
g2
S'LAN'
p2458
sg4
S'CAPITAL REGION INTL'
p2459
sg6
S'-84.5861944444'
p2460
sg8
S'MICHIGAN'
p2461
sg10
S'42.7786388889'
p2462
sg12
S'AIRPORT'
p2463
sa(dp2464
g2
S'D95'
p2465
sg4
S'DUPONT-LAPEER'
p2466
sg6
S'-83.2715555556'
p2467
sg8
S'MICHIGAN'
p2468
sg10
S'43.0664722222'
p2469
sg12
S'AIRPORT'
p2470
sa(dp2471
g2
S'8M8'
p2472
sg4
S'EAGLE II'
p2473
sg6
S'-84.2761944444'
p2474
sg8
S'MICHIGAN'
p2475
sg10
S'44.8065277778'
p2476
sg12
S'AIRPORT'
p2477
sa(dp2478
g2
S'7MI'
p2479
sg4
S'FLUGPLATZ'
p2480
sg6
S'-82.5482833333'
p2481
sg8
S'MICHIGAN'
p2482
sg10
S'43.3417416667'
p2483
sg12
S'AIRPORT'
p2484
sa(dp2485
g2
S'3L7'
p2486
sg4
S'MILWRICK FLYING M'
p2487
sg6
S'-83.3796916667'
p2488
sg8
S'MICHIGAN'
p2489
sg10
S'44.7383444444'
p2490
sg12
S'AIRPORT'
p2491
sa(dp2492
g2
S'9G2'
p2493
sg4
S'PRICES'
p2494
sg6
S'-83.7689722222'
p2495
sg8
S'MICHIGAN'
p2496
sg10
S'42.8076111111'
p2497
sg12
S'AIRPORT'
p2498
sa(dp2499
g2
S'24C'
p2500
sg4
S'LOWELL CITY'
p2501
sg6
S'-85.3439055556'
p2502
sg8
S'MICHIGAN'
p2503
sg10
S'42.9539194444'
p2504
sg12
S'AIRPORT'
p2505
sa(dp2506
g2
S'LDM'
p2507
sg4
S'MASON COUNTY'
p2508
sg6
S'-86.4079166667'
p2509
sg8
S'MICHIGAN'
p2510
sg10
S'43.9625277778'
p2511
sg12
S'AIRPORT'
p2512
sa(dp2513
g2
S'5Y4'
p2514
sg4
S'LOST CREEK'
p2515
sg6
S'-84.2375111111'
p2516
sg8
S'MICHIGAN'
p2517
sg10
S'44.6600138889'
p2518
sg12
S'AIRPORT'
p2519
sa(dp2520
g2
S'MCD'
p2521
sg4
S'MACKINAC ISLAND'
p2522
sg6
S'-84.6370944444'
p2523
sg8
S'MICHIGAN'
p2524
sg10
S'45.8649833333'
p2525
sg12
S'AIRPORT'
p2526
sa(dp2527
g2
S'D90'
p2528
sg4
S'MANCELONA MUNI'
p2529
sg6
S'-85.0667166667'
p2530
sg8
S'MICHIGAN'
p2531
sg10
S'44.9250055556'
p2532
sg12
S'AIRPORT'
p2533
sa(dp2534
g2
S'75G'
p2535
sg4
S'ROSSETTIE'
p2536
sg6
S'-84.0308611111'
p2537
sg8
S'MICHIGAN'
p2538
sg10
S'42.1950972222'
p2539
sg12
S'AIRPORT'
p2540
sa(dp2541
g2
S'MBL'
p2542
sg4
S'MANISTEE CO-BLACKER'
p2543
sg6
S'-86.2468888889'
p2544
sg8
S'MICHIGAN'
p2545
sg10
S'44.2724722222'
p2546
sg12
S'AIRPORT'
p2547
sa(dp2548
g2
S'ISQ'
p2549
sg4
S'SCHOOLCRAFT COUNTY'
p2550
sg6
S'-86.1718333333'
p2551
sg8
S'MICHIGAN'
p2552
sg10
S'45.9746388889'
p2553
sg12
S'AIRPORT'
p2554
sa(dp2555
g2
S'76G'
p2556
sg4
S'MARINE CITY'
p2557
sg6
S'-82.5962527778'
p2558
sg8
S'MICHIGAN'
p2559
sg10
S'42.7213777778'
p2560
sg12
S'AIRPORT'
p2561
sa(dp2562
g2
S'77G'
p2563
sg4
S'MARLETTE'
p2564
sg6
S'-83.0909166667'
p2565
sg8
S'MICHIGAN'
p2566
sg10
S'43.3118333333'
p2567
sg12
S'AIRPORT'
p2568
sa(dp2569
g2
S'SAW'
p2570
sg4
S'SAWYER INTL'
p2571
sg6
S'-87.3953611111'
p2572
sg8
S'MICHIGAN'
p2573
sg10
S'46.3536388889'
p2574
sg12
S'AIRPORT'
p2575
sa(dp2576
g2
S'RMY'
p2577
sg4
S'BROOKS FIELD'
p2578
sg6
S'-84.9554416667'
p2579
sg8
S'MICHIGAN'
p2580
sg10
S'42.2511916667'
p2581
sg12
S'AIRPORT'
p2582
sa(dp2583
g2
S'TEW'
p2584
sg4
S'MASON JEWETT FIELD'
p2585
sg6
S'-84.4231944444'
p2586
sg8
S'MICHIGAN'
p2587
sg10
S'42.5657777778'
p2588
sg12
S'AIRPORT'
p2589
sa(dp2590
g2
S'0C5'
p2591
sg4
S'CANADIAN LAKES'
p2592
sg6
S'-85.284'
p2593
sg8
S'MICHIGAN'
p2594
sg10
S'43.5770111111'
p2595
sg12
S'AIRPORT'
p2596
sa(dp2597
g2
S'27C'
p2598
sg4
S'MECOSTA MORTON'
p2599
sg6
S'-85.2614888889'
p2600
sg8
S'MICHIGAN'
p2601
sg10
S'43.6300444444'
p2602
sg12
S'AIRPORT'
p2603
sa(dp2604
g2
S'MNM'
p2605
sg4
S'MENOMINEE-MARINETTE TWIN COUNTY'
p2606
sg6
S'-87.6385416667'
p2607
sg8
S'MICHIGAN'
p2608
sg10
S'45.1266861111'
p2609
sg12
S'AIRPORT'
p2610
sa(dp2611
g2
S'IKW'
p2612
sg4
S'JACK BARSTOW'
p2613
sg6
S'-84.2613055556'
p2614
sg8
S'MICHIGAN'
p2615
sg10
S'43.6629166667'
p2616
sg12
S'AIRPORT'
p2617
sa(dp2618
g2
S'51M'
p2619
sg4
S'OSCODA COUNTY DENNIS KAUFFMAN MEMORIAL'
p2620
sg6
S'-84.1220416667'
p2621
sg8
S'MICHIGAN'
p2622
sg10
S'44.6748333333'
p2623
sg12
S'AIRPORT'
p2624
sa(dp2625
g2
S'TTF'
p2626
sg4
S'CUSTER'
p2627
sg6
S'-83.4346666667'
p2628
sg8
S'MICHIGAN'
p2629
sg10
S'41.9398888889'
p2630
sg12
S'AIRPORT'
p2631
sa(dp2632
g2
S'6Y0'
p2633
sg4
S'MOORESTOWN AIRPARK'
p2634
sg6
S'-84.9958722222'
p2635
sg8
S'MICHIGAN'
p2636
sg10
S'44.4625111111'
p2637
sg12
S'AIRPORT'
p2638
sa(dp2639
g2
S'MOP'
p2640
sg4
S'MOUNT PLEASANT MUNI'
p2641
sg6
S'-84.7373055556'
p2642
sg8
S'MICHIGAN'
p2643
sg10
S'43.6216388889'
p2644
sg12
S'AIRPORT'
p2645
sa(dp2646
g2
S'5Y7'
p2647
sg4
S'HANLEY FIELD'
p2648
sg6
S'-86.6209888889'
p2649
sg8
S'MICHIGAN'
p2650
sg10
S'46.3541166667'
p2651
sg12
S'AIRPORT'
p2652
sa(dp2653
g2
S'MKG'
p2654
sg4
S'MUSKEGON COUNTY'
p2655
sg6
S'-86.2354361111'
p2656
sg8
S'MICHIGAN'
p2657
sg10
S'43.1676694444'
p2658
sg12
S'AIRPORT'
p2659
sa(dp2660
g2
S'3NP'
p2661
sg4
S'NAPOLEON'
p2662
sg6
S'-84.2593083333'
p2663
sg8
S'MICHIGAN'
p2664
sg10
S'42.1710027778'
p2665
sg12
S'AIRPORT'
p2666
sa(dp2667
g2
S'6H4'
p2668
sg4
S'VAN WAGNEN'
p2669
sg6
S'-84.3343194444'
p2670
sg8
S'MICHIGAN'
p2671
sg10
S'42.1557638889'
p2672
sg12
S'AIRPORT'
p2673
sa(dp2674
g2
S'26W'
p2675
sg4
S'WOLF LAKE'
p2676
sg6
S'-84.2316666667'
p2677
sg8
S'MICHIGAN'
p2678
sg10
S'42.2097222222'
p2679
sg12
S'AIRPORT'
p2680
sa(dp2681
g2
S'Y47'
p2682
sg4
S'OAKLAND SOUTHWEST'
p2683
sg6
S'-83.6237166667'
p2684
sg8
S'MICHIGAN'
p2685
sg10
S'42.5031166667'
p2686
sg12
S'AIRPORT'
p2687
sa(dp2688
g2
S'ERY'
p2689
sg4
S'LUCE COUNTY'
p2690
sg6
S'-85.4571666667'
p2691
sg8
S'MICHIGAN'
p2692
sg10
S'46.311'
p2693
sg12
S'AIRPORT'
p2694
sa(dp2695
g2
S'3TR'
p2696
sg4
S'JERRY TYLER MEMORIAL'
p2697
sg6
S'-86.2251666667'
p2698
sg8
S'MICHIGAN'
p2699
sg10
S'41.8358888889'
p2700
sg12
S'AIRPORT'
p2701
sa(dp2702
g2
S'6Y3'
p2703
sg4
S'NORTH FOX ISLAND'
p2704
sg6
S'-85.7804222222'
p2705
sg8
S'MICHIGAN'
p2706
sg10
S'45.4822694444'
p2707
sg12
S'AIRPORT'
p2708
sa(dp2709
g2
S'5D5'
p2710
sg4
S'WOOLSEY MEMORIAL'
p2711
sg6
S'-85.5754972222'
p2712
sg8
S'MICHIGAN'
p2713
sg10
S'45.1643777778'
p2714
sg12
S'AIRPORT'
p2715
sa(dp2716
g2
S'5N7'
p2717
sg4
S'HAT FIELD'
p2718
sg6
S'-86.0946166667'
p2719
sg8
S'MICHIGAN'
p2720
sg10
S'43.0971888889'
p2721
sg12
S'AIRPORT'
p2722
sa(dp2723
g2
S'33C'
p2724
sg4
S'JABLONSKI'
p2725
sg6
S'-86.0947722222'
p2726
sg8
S'MICHIGAN'
p2727
sg10
S'43.0822416667'
p2728
sg12
S'AIRPORT'
p2729
sa(dp2730
g2
S'Y96'
p2731
sg4
S'LEO E GOETZ COUNTY'
p2732
sg6
S'-84.2250138889'
p2733
sg8
S'MICHIGAN'
p2734
sg10
S'45.3708444444'
p2735
sg12
S'AIRPORT'
p2736
sa(dp2737
g2
S'11J'
p2738
sg4
S'GORILLA'
p2739
sg6
S'-84.5780277778'
p2740
sg8
S'MICHIGAN'
p2741
sg10
S'42.425'
p2742
sg12
S'HELIPORT'
p2743
sa(dp2744
g2
S'OGM'
p2745
sg4
S'ONTONAGON COUNTY - SCHUSTER FIELD'
p2746
sg6
S'-89.3670833333'
p2747
sg8
S'MICHIGAN'
p2748
sg10
S'46.8454722222'
p2749
sg12
S'AIRPORT'
p2750
sa(dp2751
g2
S'OSC'
p2752
sg4
S'OSCODA-WURTSMITH'
p2753
sg6
S'-83.3941666667'
p2754
sg8
S'MICHIGAN'
p2755
sg10
S'44.4515277778'
p2756
sg12
S'AIRPORT'
p2757
sa(dp2758
g2
S'RNP'
p2759
sg4
S'OWOSSO COMMUNITY'
p2760
sg6
S'-84.1384833333'
p2761
sg8
S'MICHIGAN'
p2762
sg10
S'42.9929611111'
p2763
sg12
S'AIRPORT'
p2764
sa(dp2765
g2
S'2H4'
p2766
sg4
S'TRIPLE H'
p2767
sg6
S'-85.5556916667'
p2768
sg8
S'MICHIGAN'
p2769
sg10
S'42.3654305556'
p2770
sg12
S'AIRPORT'
p2771
sa(dp2772
g2
S'2C5'
p2773
sg4
S'ALMENA'
p2774
sg6
S'-85.8516527778'
p2775
sg8
S'MICHIGAN'
p2776
sg10
S'42.2529833333'
p2777
sg12
S'AIRPORT'
p2778
sa(dp2779
g2
S'PLN'
p2780
sg4
S'PELLSTON RGNL AIRPORT OF EMMET COUNTY'
p2781
sg6
S'-84.7967222222'
p2782
sg8
S'MICHIGAN'
p2783
sg10
S'45.5709166667'
p2784
sg12
S'AIRPORT'
p2785
sa(dp2786
g2
S'88G'
p2787
sg4
S'GRADOLPH FLD'
p2788
sg6
S'-83.7349361111'
p2789
sg8
S'MICHIGAN'
p2790
sg10
S'41.9197666667'
p2791
sg12
S'AIRPORT'
p2792
sa(dp2793
g2
S'52I'
p2794
sg4
S'GROSS'
p2795
sg6
S'-84.0113888889'
p2796
sg8
S'MICHIGAN'
p2797
sg10
S'43.8468888889'
p2798
sg12
S'AIRPORT'
p2799
sa(dp2800
g2
S'61D'
p2801
sg4
S'PLAINWELL MUNI'
p2802
sg6
S'-85.6480444444'
p2803
sg8
S'MICHIGAN'
p2804
sg10
S'42.4677916667'
p2805
sg12
S'AIRPORT'
p2806
sa(dp2807
g2
S'1D2'
p2808
sg4
S'CANTON-PLYMOUTH-METTETAL'
p2809
sg6
S'-83.4563388889'
p2810
sg8
S'MICHIGAN'
p2811
sg10
S'42.3481527778'
p2812
sg12
S'AIRPORT'
p2813
sa(dp2814
g2
S'PTK'
p2815
sg4
S'OAKLAND COUNTY INTL'
p2816
sg6
S'-83.4205055556'
p2817
sg8
S'MICHIGAN'
p2818
sg10
S'42.6656361111'
p2819
sg12
S'AIRPORT'
p2820
sa(dp2821
g2
S'29C'
p2822
sg4
S'GRINDSTONE AIR HARBOR'
p2823
sg6
S'-82.9144166667'
p2824
sg8
S'MICHIGAN'
p2825
sg10
S'44.0467777778'
p2826
sg12
S'AIRPORT'
p2827
sa(dp2828
g2
S'PHN'
p2829
sg4
S'ST CLAIR COUNTY INTL'
p2830
sg6
S'-82.5288611111'
p2831
sg8
S'MICHIGAN'
p2832
sg10
S'42.9109722222'
p2833
sg12
S'AIRPORT'
p2834
sa(dp2835
g2
S'M86'
p2836
sg4
S'WALLE FIELD'
p2837
sg6
S'-86.12725'
p2838
sg8
S'MICHIGAN'
p2839
sg10
S'42.4708611111'
p2840
sg12
S'AIRPORT'
p2841
sa(dp2842
g2
S'57D'
p2843
sg4
S'RAY COMMUNITY'
p2844
sg6
S'-82.8888361111'
p2845
sg8
S'MICHIGAN'
p2846
sg10
S'42.73675'
p2847
sg12
S'AIRPORT'
p2848
sa(dp2849
g2
S'RCT'
p2850
sg4
S'NARTRON FIELD'
p2851
sg6
S'-85.5167166667'
p2852
sg8
S'MICHIGAN'
p2853
sg10
S'43.9000138889'
p2854
sg12
S'AIRPORT'
p2855
sa(dp2856
g2
S'6Y4'
p2857
sg4
S'VAN EFFEN FLD'
p2858
sg6
S'-87.2582055556'
p2859
sg8
S'MICHIGAN'
p2860
sg10
S'46.0520527778'
p2861
sg12
S'AIRPORT'
p2862
sa(dp2863
g2
S'35C'
p2864
sg4
S'WELLS'
p2865
sg6
S'-85.5053055556'
p2866
sg8
S'MICHIGAN'
p2867
sg10
S'43.1283611111'
p2868
sg12
S'AIRPORT'
p2869
sa(dp2870
g2
S'PZQ'
p2871
sg4
S'PRESQUE ISLE COUNTY'
p2872
sg6
S'-83.8128611111'
p2873
sg8
S'MICHIGAN'
p2874
sg10
S'45.4070833333'
p2875
sg12
S'AIRPORT'
p2876
sa(dp2877
g2
S'D98'
p2878
sg4
S'ROMEO STATE'
p2879
sg6
S'-82.9742583333'
p2880
sg8
S'MICHIGAN'
p2881
sg10
S'42.7963333333'
p2882
sg12
S'AIRPORT'
p2883
sa(dp2884
g2
S'3RC'
p2885
sg4
S'ROSCOMMON CONSERVATION'
p2886
sg6
S'-84.5668194444'
p2887
sg8
S'MICHIGAN'
p2888
sg10
S'44.4734083333'
p2889
sg12
S'AIRPORT'
p2890
sa(dp2891
g2
S'MBS'
p2892
sg4
S'MBS INTL'
p2893
sg6
S'-84.0796388889'
p2894
sg8
S'MICHIGAN'
p2895
sg10
S'43.5329166667'
p2896
sg12
S'AIRPORT'
p2897
sa(dp2898
g2
S'HYX'
p2899
sg4
S'SAGINAW COUNTY H W BROWNE'
p2900
sg6
S'-83.8623055556'
p2901
sg8
S'MICHIGAN'
p2902
sg10
S'43.4333611111'
p2903
sg12
S'AIRPORT'
p2904
sa(dp2905
g2
S'96G'
p2906
sg4
S'COWLEY FIELD'
p2907
sg6
S'-82.8188333333'
p2908
sg8
S'MICHIGAN'
p2909
sg10
S'43.3757222222'
p2910
sg12
S'AIRPORT'
p2911
sa(dp2912
g2
S'Y83'
p2913
sg4
S'SANDUSKY CITY'
p2914
sg6
S'-82.8417833333'
p2915
sg8
S'MICHIGAN'
p2916
sg10
S'43.4556277778'
p2917
sg12
S'AIRPORT'
p2918
sa(dp2919
g2
S'CIU'
p2920
sg4
S'CHIPPEWA COUNTY INTL'
p2921
sg6
S'-84.4723888889'
p2922
sg8
S'MICHIGAN'
p2923
sg10
S'46.25075'
p2924
sg12
S'AIRPORT'
p2925
sa(dp2926
g2
S'ANJ'
p2927
sg4
S'SAULT STE MARIE MUNI/SANDERSON FIELD'
p2928
sg6
S'-84.3683888889'
p2929
sg8
S'MICHIGAN'
p2930
sg10
S'46.4792222222'
p2931
sg12
S'AIRPORT'
p2932
sa(dp2933
g2
S'P97'
p2934
sg4
S'PRAIRIE RONDE'
p2935
sg6
S'-85.7102777778'
p2936
sg8
S'MICHIGAN'
p2937
sg10
S'42.12375'
p2938
sg12
S'AIRPORT'
p2939
sa(dp2940
g2
S'98G'
p2941
sg4
S'SEBEWAING'
p2942
sg6
S'-83.4636166667'
p2943
sg8
S'MICHIGAN'
p2944
sg10
S'43.7295083333'
p2945
sg12
S'AIRPORT'
p2946
sa(dp2947
g2
S'6Y9'
p2948
sg4
S'PRICKETT-GROOMS FLD'
p2949
sg6
S'-88.7058472222'
p2950
sg8
S'MICHIGAN'
p2951
sg10
S'46.5086527778'
p2952
sg12
S'AIRPORT'
p2953
sa(dp2954
g2
S'11G'
p2955
sg4
S'JOHNSON FIELD'
p2956
sg6
S'-82.5854722222'
p2957
sg8
S'MICHIGAN'
p2958
sg10
S'42.9211388889'
p2959
sg12
S'AIRPORT'
p2960
sa(dp2961
g2
S'LWA'
p2962
sg4
S'SOUTH HAVEN AREA RGNL'
p2963
sg6
S'-86.2557416667'
p2964
sg8
S'MICHIGAN'
p2965
sg10
S'42.3513305556'
p2966
sg12
S'AIRPORT'
p2967
sa(dp2968
g2
S'8D4'
p2969
sg4
S'PAUL C MILLER-SPARTA'
p2970
sg6
S'-85.6791277778'
p2971
sg8
S'MICHIGAN'
p2972
sg10
S'43.1274361111'
p2973
sg12
S'AIRPORT'
p2974
sa(dp2975
g2
S'5Y5'
p2976
sg4
S"DAVID'S LANDING"
p2977
sg6
S'-82.5364722222'
p2978
sg8
S'MICHIGAN'
p2979
sg10
S'42.7977777778'
p2980
sg12
S'AIRPORT'
p2981
sa(dp2982
g2
S'6Y6'
p2983
sg4
S'ST HELEN'
p2984
sg6
S'-84.4021555556'
p2985
sg8
S'MICHIGAN'
p2986
sg10
S'44.3680027778'
p2987
sg12
S'AIRPORT'
p2988
sa(dp2989
g2
S'83D'
p2990
sg4
S'MACKINAC COUNTY'
p2991
sg6
S'-84.7381388889'
p2992
sg8
S'MICHIGAN'
p2993
sg10
S'45.8914444444'
p2994
sg12
S'AIRPORT'
p2995
sa(dp2996
g2
S'97G'
p2997
sg4
S'GLOWACKI'
p2998
sg6
S'-84.5958194444'
p2999
sg8
S'MICHIGAN'
p3000
sg10
S'43.0000305556'
p3001
sg12
S'AIRPORT'
p3002
sa(dp3003
g2
S'3S5'
p3004
sg4
S'SCHIFFER ACRES'
p3005
sg6
S'-84.4338694444'
p3006
sg8
S'MICHIGAN'
p3007
sg10
S'43.0358611111'
p3008
sg12
S'AIRPORT'
p3009
sa(dp3010
g2
S'39T'
p3011
sg4
S'TRIPP CREEK'
p3012
sg6
S'-84.48915'
p3013
sg8
S'MICHIGAN'
p3014
sg10
S'43.0647527778'
p3015
sg12
S'AIRPORT'
p3016
sa(dp3017
g2
S'38C'
p3018
sg4
S'CAIN FIELD'
p3019
sg6
S'-85.4924722222'
p3020
sg8
S'MICHIGAN'
p3021
sg10
S'43.5984722222'
p3022
sg12
S'AIRPORT'
p3023
sa(dp3024
g2
S'IRS'
p3025
sg4
S'KIRSCH MUNI'
p3026
sg6
S'-85.4389583333'
p3027
sg8
S'MICHIGAN'
p3028
sg10
S'41.8132861111'
p3029
sg12
S'AIRPORT'
p3030
sa(dp3031
g2
S'C43'
p3032
sg4
S'HIRAM CURE'
p3033
sg6
S'-84.9649555556'
p3034
sg8
S'MICHIGAN'
p3035
sg10
S'42.7700305556'
p3036
sg12
S'AIRPORT'
p3037
sa(dp3038
g2
S'34G'
p3039
sg4
S'MERILLAT'
p3040
sg6
S'-83.9252166667'
p3041
sg8
S'MICHIGAN'
p3042
sg10
S'41.9750444444'
p3043
sg12
S'AIRPORT'
p3044
sa(dp3045
g2
S'3TE'
p3046
sg4
S"MEYERS-DIVER'S"
p3047
sg6
S'-83.9393'
p3048
sg8
S'MICHIGAN'
p3049
sg10
S'42.0251027778'
p3050
sg12
S'AIRPORT'
p3051
sa(dp3052
g2
S'22T'
p3053
sg4
S'TECUMSEH MILLS'
p3054
sg6
S'-83.8783527778'
p3055
sg8
S'MICHIGAN'
p3056
sg10
S'42.0338472222'
p3057
sg12
S'AIRPORT'
p3058
sa(dp3059
g2
S'2T7'
p3060
sg4
S"VAN CAMP'S"
p3061
sg6
S'-83.84865'
p3062
sg8
S'MICHIGAN'
p3063
sg10
S'42.0192333333'
p3064
sg12
S'HELIPORT'
p3065
sa(dp3066
g2
S'7Y2'
p3067
sg4
S'THOMPSONVILLE'
p3068
sg6
S'-85.9705666667'
p3069
sg8
S'MICHIGAN'
p3070
sg10
S'44.5177944444'
p3071
sg12
S'AIRPORT'
p3072
sa(dp3073
g2
S'HAI'
p3074
sg4
S'THREE RIVERS MUNI DR HAINES'
p3075
sg6
S'-85.5930555556'
p3076
sg8
S'MICHIGAN'
p3077
sg10
S'41.95975'
p3078
sg12
S'AIRPORT'
p3079
sa(dp3080
g2
S'Y30'
p3081
sg4
S'PBEAAYE'
p3082
sg6
S'-84.5569805556'
p3083
sg8
S'MICHIGAN'
p3084
sg10
S'45.5311194444'
p3085
sg12
S'AIRPORT'
p3086
sa(dp3087
g2
S'TVC'
p3088
sg4
S'CHERRY CAPITAL'
p3089
sg6
S'-85.5817777778'
p3090
sg8
S'MICHIGAN'
p3091
sg10
S'44.7415833333'
p3092
sg12
S'AIRPORT'
p3093
sa(dp3094
g2
S'4M0'
p3095
sg4
S'LAKE ANN AIRWAY ESTATES'
p3096
sg6
S'-85.9140472222'
p3097
sg8
S'MICHIGAN'
p3098
sg10
S'44.6961527778'
p3099
sg12
S'AIRPORT'
p3100
sa(dp3101
g2
S'Y04'
p3102
sg4
S'SUGAR LOAF RESORT'
p3103
sg6
S'-85.813975'
p3104
sg8
S'MICHIGAN'
p3105
sg10
S'44.9124972222'
p3106
sg12
S'AIRPORT'
p3107
sa(dp3108
g2
S'VLL'
p3109
sg4
S'OAKLAND/TROY'
p3110
sg6
S'-83.1778888889'
p3111
sg8
S'MICHIGAN'
p3112
sg10
S'42.5429444444'
p3113
sg12
S'AIRPORT'
p3114
sa(dp3115
g2
S'40C'
p3116
sg4
S'WATERVLIET MUNI'
p3117
sg6
S'-86.2500222222'
p3118
sg8
S'MICHIGAN'
p3119
sg10
S'42.2000361111'
p3120
sg12
S'AIRPORT'
p3121
sa(dp3122
g2
S'41C'
p3123
sg4
S'CALKINS FIELD'
p3124
sg6
S'-85.6458527778'
p3125
sg8
S'MICHIGAN'
p3126
sg10
S'42.6916972222'
p3127
sg12
S'AIRPORT'
p3128
sa(dp3129
g2
S'D11'
p3130
sg4
S'OJIBWA AIRPARK'
p3131
sg6
S'-85.0028027778'
p3132
sg8
S'MICHIGAN'
p3133
sg10
S'43.720025'
p3134
sg12
S'AIRPORT'
p3135
sa(dp3136
g2
S'Y31'
p3137
sg4
S'WEST BRANCH COMMUNITY'
p3138
sg6
S'-84.1798083333'
p3139
sg8
S'MICHIGAN'
p3140
sg10
S'44.2448111111'
p3141
sg12
S'AIRPORT'
p3142
sa(dp3143
g2
S'3F5'
p3144
sg4
S'FOREST HILL'
p3145
sg6
S'-84.675'
p3146
sg8
S'MICHIGAN'
p3147
sg10
S'42.9107222222'
p3148
sg12
S'AIRPORT'
p3149
sa(dp3150
g2
S'42C'
p3151
sg4
S'WHITE CLOUD'
p3152
sg6
S'-85.7741527778'
p3153
sg8
S'MICHIGAN'
p3154
sg10
S'43.5598472222'
p3155
sg12
S'AIRPORT'
p3156
sa(dp3157
g2
S'89Y'
p3158
sg4
S'MAIDENS'
p3159
sg6
S'-84.3221111111'
p3160
sg8
S'MICHIGAN'
p3161
sg10
S'42.7338611111'
p3162
sg12
S'AIRPORT'
p3163
sa(dp3164
g2
S'53W'
p3165
sg4
S'WOODRUFF LAKE'
p3166
sg6
S'-84.9785555556'
p3167
sg8
S'MICHIGAN'
p3168
sg10
S'43.5544722222'
p3169
sg12
S'AIRPORT'
p3170
sa(dp3171
g2
S'48G'
p3172
sg4
S'GAVAGAN FLD'
p3173
sg6
S'-82.8902222222'
p3174
sg8
S'MICHIGAN'
p3175
sg10
S'43.1034444444'
p3176
sg12
S'AIRPORT'
p3177
sa(dp3178
g2
S'4Y8'
p3179
sg4
S'PARA FIELD'
p3180
sg6
S'-82.7538888889'
p3181
sg8
S'MICHIGAN'
p3182
sg10
S'43.2022444444'
p3183
sg12
S'AIRPORT'
p3184
sa(dp3185
g2
S'D20'
p3186
sg4
S'YALE'
p3187
sg6
S'-82.7874277778'
p3188
sg8
S'MICHIGAN'
p3189
sg10
S'43.112525'
p3190
sg12
S'AIRPORT'
p3191
sa(dp3192
g2
S'Z98'
p3193
sg4
S'OTTAWA EXECUTIVE'
p3194
sg6
S'-85.9280916667'
p3195
sg8
S'MICHIGAN'
p3196
sg10
S'42.8172472222'
p3197
sg12
S'AIRPORT'
p3198
sa(dp3199
g2
S'D00'
p3200
sg4
S'NORMAN COUNTY ADA/TWIN VALLEY'
p3201
sg6
S'-96.4002638889'
p3202
sg8
S'MINNESOTA'
p3203
sg10
S'47.2604666667'
p3204
sg12
S'AIRPORT'
p3205
sa(dp3206
g2
S'AIT'
p3207
sg4
S'AITKIN MUNI-STEVE KURTZ FIELD'
p3208
sg6
S'-93.6766305556'
p3209
sg8
S'MINNESOTA'
p3210
sg10
S'46.5484611111'
p3211
sg12
S'AIRPORT'
p3212
sa(dp3213
g2
S'AEL'
p3214
sg4
S'ALBERT LEA MUNI'
p3215
sg6
S'-93.3681472222'
p3216
sg8
S'MINNESOTA'
p3217
sg10
S'43.6813138889'
p3218
sg12
S'AIRPORT'
p3219
sa(dp3220
g2
S'AXN'
p3221
sg4
S'CHANDLER FIELD'
p3222
sg6
S'-95.3946666667'
p3223
sg8
S'MINNESOTA'
p3224
sg10
S'45.8663055556'
p3225
sg12
S'AIRPORT'
p3226
sa(dp3227
g2
S'AQP'
p3228
sg4
S'APPLETON MUNI'
p3229
sg6
S'-96.0045277778'
p3230
sg8
S'MINNESOTA'
p3231
sg10
S'45.2275'
p3232
sg12
S'AIRPORT'
p3233
sa(dp3234
g2
S'AUM'
p3235
sg4
S'AUSTIN MUNI'
p3236
sg6
S'-92.9329166667'
p3237
sg8
S'MINNESOTA'
p3238
sg10
S'43.6626388889'
p3239
sg12
S'AIRPORT'
p3240
sa(dp3241
g2
S'7Y3'
p3242
sg4
S'BACKUS MUNI'
p3243
sg6
S'-94.5072194444'
p3244
sg8
S'MINNESOTA'
p3245
sg10
S'46.8269027778'
p3246
sg12
S'AIRPORT'
p3247
sa(dp3248
g2
S'7Y4'
p3249
sg4
S'BAGLEY MUNI'
p3250
sg6
S'-95.3637111111'
p3251
sg8
S'MINNESOTA'
p3252
sg10
S'47.5240305556'
p3253
sg12
S'AIRPORT'
p3254
sa(dp3255
g2
S'BDE'
p3256
sg4
S'BAUDETTE INTL'
p3257
sg6
S'-94.6121944444'
p3258
sg8
S'MINNESOTA'
p3259
sg10
S'48.7284444444'
p3260
sg12
S'AIRPORT'
p3261
sa(dp3262
g2
S'7Y7'
p3263
sg4
S'A R S SPORT STRIP'
p3264
sg6
S'-93.7787722222'
p3265
sg8
S'MINNESOTA'
p3266
sg10
S'44.6597222222'
p3267
sg12
S'AIRPORT'
p3268
sa(dp3269
g2
S'BJI'
p3270
sg4
S'BEMIDJI RGNL'
p3271
sg6
S'-94.9347222222'
p3272
sg8
S'MINNESOTA'
p3273
sg10
S'47.5107222222'
p3274
sg12
S'AIRPORT'
p3275
sa(dp3276
g2
S'96M'
p3277
sg4
S'MOBERG AIR BASE'
p3278
sg6
S'-94.9452777778'
p3279
sg8
S'MINNESOTA'
p3280
sg10
S'47.4996722222'
p3281
sg12
S'SEAPLANE BASE'
p3282
sa(dp3283
g2
S'BBB'
p3284
sg4
S'BENSON MUNI'
p3285
sg6
S'-95.6505833333'
p3286
sg8
S'MINNESOTA'
p3287
sg10
S'45.3319166667'
p3288
sg12
S'AIRPORT'
p3289
sa(dp3290
g2
S'7Y9'
p3291
sg4
S'BIG FALLS MUNI'
p3292
sg6
S'-93.762375'
p3293
sg8
S'MINNESOTA'
p3294
sg10
S'48.2005138889'
p3295
sg12
S'AIRPORT'
p3296
sa(dp3297
g2
S'FOZ'
p3298
sg4
S'BIGFORK MUNI'
p3299
sg6
S'-93.6509916667'
p3300
sg8
S'MINNESOTA'
p3301
sg10
S'47.7839333333'
p3302
sg12
S'AIRPORT'
p3303
sa(dp3304
g2
S'SBU'
p3305
sg4
S'BLUE EARTH MUNI'
p3306
sg6
S'-94.0928611111'
p3307
sg8
S'MINNESOTA'
p3308
sg10
S'43.5953611111'
p3309
sg12
S'AIRPORT'
p3310
sa(dp3311
g2
S'9Y0'
p3312
sg4
S'BOWSTRING'
p3313
sg6
S'-93.8699527778'
p3314
sg8
S'MINNESOTA'
p3315
sg10
S'47.5582194444'
p3316
sg12
S'AIRPORT'
p3317
sa(dp3318
g2
S'BRD'
p3319
sg4
S'BRAINERD LAKES RGNL'
p3320
sg6
S'-94.1338055556'
p3321
sg8
S'MINNESOTA'
p3322
sg10
S'46.4042222222'
p3323
sg12
S'AIRPORT'
p3324
sa(dp3325
g2
S'6D1'
p3326
sg4
S'BROOTEN MUNI/JOHN O BOHMER FIELD'
p3327
sg6
S'-95.1042083333'
p3328
sg8
S'MINNESOTA'
p3329
sg10
S'45.4970472222'
p3330
sg12
S'AIRPORT'
p3331
sa(dp3332
g2
S'CFE'
p3333
sg4
S'BUFFALO MUNI'
p3334
sg6
S'-93.8433055556'
p3335
sg8
S'MINNESOTA'
p3336
sg10
S'45.1588333333'
p3337
sg12
S'AIRPORT'
p3338
sa(dp3339
g2
S'CHU'
p3340
sg4
S'HOUSTON COUNTY'
p3341
sg6
S'-91.5039444444'
p3342
sg8
S'MINNESOTA'
p3343
sg10
S'43.5963583333'
p3344
sg12
S'AIRPORT'
p3345
sa(dp3346
g2
S'CBG'
p3347
sg4
S'CAMBRIDGE MUNI'
p3348
sg6
S'-93.2641833333'
p3349
sg8
S'MINNESOTA'
p3350
sg10
S'45.5574916667'
p3351
sg12
S'AIRPORT'
p3352
sa(dp3353
g2
S'CNB'
p3354
sg4
S'MYERS FIELD'
p3355
sg6
S'-96.2660277778'
p3356
sg8
S'MINNESOTA'
p3357
sg10
S'44.7295'
p3358
sg12
S'AIRPORT'
p3359
sa(dp3360
g2
S'8Y5'
p3361
sg4
S'CLARISSA MUNI'
p3362
sg6
S'-94.9066888889'
p3363
sg8
S'MINNESOTA'
p3364
sg10
S'46.1130194444'
p3365
sg12
S'AIRPORT'
p3366
sa(dp3367
g2
S'8Y6'
p3368
sg4
S'LEADERS CLEAR LAKE'
p3369
sg6
S'-93.9710916667'
p3370
sg8
S'MINNESOTA'
p3371
sg10
S'45.4444083333'
p3372
sg12
S'AIRPORT'
p3373
sa(dp3374
g2
S'COQ'
p3375
sg4
S'CLOQUET CARLTON COUNTY'
p3376
sg6
S'-92.5035555556'
p3377
sg8
S'MINNESOTA'
p3378
sg10
S'46.7011111111'
p3379
sg12
S'AIRPORT'
p3380
sa(dp3381
g2
S'CQM'
p3382
sg4
S'COOK MUNI'
p3383
sg6
S'-92.6905277778'
p3384
sg8
S'MINNESOTA'
p3385
sg10
S'47.8220833333'
p3386
sg12
S'AIRPORT'
p3387
sa(dp3388
g2
S'CDD'
p3389
sg4
S'SCOTTS'
p3390
sg6
S'-92.4834888889'
p3391
sg8
S'MINNESOTA'
p3392
sg10
S'48.2665694444'
p3393
sg12
S'SEAPLANE BASE'
p3394
sa(dp3395
g2
S'CKN'
p3396
sg4
S'CROOKSTON MUNI KIRKWOOD FLD'
p3397
sg6
S'-96.6214527778'
p3398
sg8
S'MINNESOTA'
p3399
sg10
S'47.8416555556'
p3400
sg12
S'AIRPORT'
p3401
sa(dp3402
g2
S'M69'
p3403
sg4
S'BIRCH LAKE'
p3404
sg6
S'-93.8138666667'
p3405
sg8
S'MINNESOTA'
p3406
sg10
S'46.3696805556'
p3407
sg12
S'SEAPLANE BASE'
p3408
sa(dp3409
g2
S'DTL'
p3410
sg4
S'DETROIT LAKES-WETHING FIELD'
p3411
sg6
S'-95.8855833333'
p3412
sg8
S'MINNESOTA'
p3413
sg10
S'46.8251666667'
p3414
sg12
S'AIRPORT'
p3415
sa(dp3416
g2
S'TOB'
p3417
sg4
S'DODGE CENTER'
p3418
sg6
S'-92.8316194444'
p3419
sg8
S'MINNESOTA'
p3420
sg10
S'44.0179944444'
p3421
sg12
S'AIRPORT'
p3422
sa(dp3423
g2
S'DLH'
p3424
sg4
S'DULUTH INTL'
p3425
sg6
S'-92.1936388889'
p3426
sg8
S'MINNESOTA'
p3427
sg10
S'46.8420833333'
p3428
sg12
S'AIRPORT'
p3429
sa(dp3430
g2
S'9M0'
p3431
sg4
S'NORTH COUNTRY'
p3432
sg6
S'-92.1682416667'
p3433
sg8
S'MINNESOTA'
p3434
sg10
S'47.0149361111'
p3435
sg12
S'SEAPLANE BASE'
p3436
sa(dp3437
g2
S'DYT'
p3438
sg4
S'SKY HARBOR'
p3439
sg6
S'-92.0434388889'
p3440
sg8
S'MINNESOTA'
p3441
sg10
S'46.7218583333'
p3442
sg12
S'AIRPORT'
p3443
sa(dp3444
g2
S'9Y2'
p3445
sg4
S'EAST GULL LAKE'
p3446
sg6
S'-94.3736138889'
p3447
sg8
S'MINNESOTA'
p3448
sg10
S'46.3838555556'
p3449
sg12
S'AIRPORT'
p3450
sa(dp3451
g2
S'M16'
p3452
sg4
S'STEAM BOAT BAY SEAPLANE BASE'
p3453
sg6
S'-94.371'
p3454
sg8
S'MINNESOTA'
p3455
sg10
S'46.3978611111'
p3456
sg12
S'SEAPLANE BASE'
p3457
sa(dp3458
g2
S'Y63'
p3459
sg4
S'ELBOW LAKE MUNI - PRIDE OF THE PRAIRIE'
p3460
sg6
S'-95.99185'
p3461
sg8
S'MINNESOTA'
p3462
sg10
S'45.9848305556'
p3463
sg12
S'AIRPORT'
p3464
sa(dp3465
g2
S'ELO'
p3466
sg4
S'ELY MUNI'
p3467
sg6
S'-91.8293194444'
p3468
sg8
S'MINNESOTA'
p3469
sg10
S'47.8240111111'
p3470
sg12
S'AIRPORT'
p3471
sa(dp3472
g2
S'EVM'
p3473
sg4
S'EVELETH-VIRGINIA MUNI'
p3474
sg6
S'-92.4965555556'
p3475
sg8
S'MINNESOTA'
p3476
sg10
S'47.4241666667'
p3477
sg12
S'AIRPORT'
p3478
sa(dp3479
g2
S'9Y5'
p3480
sg4
S'SKY HARBOR'
p3481
sg6
S'-92.4765722222'
p3482
sg8
S'MINNESOTA'
p3483
sg10
S'47.4596472222'
p3484
sg12
S'SEAPLANE BASE'
p3485
sa(dp3486
g2
S'FRM'
p3487
sg4
S'FAIRMONT MUNI'
p3488
sg6
S'-94.4156111111'
p3489
sg8
S'MINNESOTA'
p3490
sg10
S'43.6439444444'
p3491
sg12
S'AIRPORT'
p3492
sa(dp3493
g2
S'FBL'
p3494
sg4
S'FARIBAULT MUNI'
p3495
sg6
S'-93.3130722222'
p3496
sg8
S'MINNESOTA'
p3497
sg10
S'44.3289666667'
p3498
sg12
S'AIRPORT'
p3499
sa(dp3500
g2
S'FFM'
p3501
sg4
S'FERGUS FALLS MUNI-EINAR MICKELSON FLD'
p3502
sg6
S'-96.1566944444'
p3503
sg8
S'MINNESOTA'
p3504
sg10
S'46.2843888889'
p3505
sg12
S'AIRPORT'
p3506
sa(dp3507
g2
S'D14'
p3508
sg4
S'FERTILE MUNI'
p3509
sg6
S'-96.2921944444'
p3510
sg8
S'MINNESOTA'
p3511
sg10
S'47.5519166667'
p3512
sg12
S'AIRPORT'
p3513
sa(dp3514
g2
S'25D'
p3515
sg4
S'FOREST LAKE'
p3516
sg6
S'-92.9928527778'
p3517
sg8
S'MINNESOTA'
p3518
sg10
S'45.2474083333'
p3519
sg12
S'AIRPORT'
p3520
sa(dp3521
g2
S'FSE'
p3522
sg4
S'FOSSTON MUNI'
p3523
sg6
S'-95.7734972222'
p3524
sg8
S'MINNESOTA'
p3525
sg10
S'47.5928194444'
p3526
sg12
S'AIRPORT'
p3527
sa(dp3528
g2
S'GYL'
p3529
sg4
S'GLENCOE MUNI'
p3530
sg6
S'-94.0814638889'
p3531
sg8
S'MINNESOTA'
p3532
sg10
S'44.7560055556'
p3533
sg12
S'AIRPORT'
p3534
sa(dp3535
g2
S'GHW'
p3536
sg4
S'GLENWOOD MUNI'
p3537
sg6
S'-95.3204472222'
p3538
sg8
S'MINNESOTA'
p3539
sg10
S'45.6438277778'
p3540
sg12
S'AIRPORT'
p3541
sa(dp3542
g2
S'CKC'
p3543
sg4
S'GRAND MARAIS/COOK COUNTY'
p3544
sg6
S'-90.3829444444'
p3545
sg8
S'MINNESOTA'
p3546
sg10
S'47.8383333333'
p3547
sg12
S'AIRPORT'
p3548
sa(dp3549
g2
S'0G5'
p3550
sg4
S'GRAND MARAIS/COOK COUNTY'
p3551
sg6
S'-90.4073055556'
p3552
sg8
S'MINNESOTA'
p3553
sg10
S'47.8228333333'
p3554
sg12
S'SEAPLANE BASE'
p3555
sa(dp3556
g2
S'GPZ'
p3557
sg4
S'GRAND RAPIDS/ITASCA CO-GORDON NEWSTROM FLD'
p3558
sg6
S'-93.5099166667'
p3559
sg8
S'MINNESOTA'
p3560
sg10
S'47.2101388889'
p3561
sg12
S'AIRPORT'
p3562
sa(dp3563
g2
S'GDB'
p3564
sg4
S'GRANITE FALLS MUNI/LENZEN-ROE-FAGEN MEMORI'
p3565
sg6
S'-95.5555277778'
p3566
sg8
S'MINNESOTA'
p3567
sg10
S'44.7524583333'
p3568
sg12
S'AIRPORT'
p3569
sa(dp3570
g2
S'3G2'
p3571
sg4
S'GRYGLA MUNI - MEL WILKENS FIELD'
p3572
sg6
S'-95.6259722222'
p3573
sg8
S'MINNESOTA'
p3574
sg10
S'48.2940833333'
p3575
sg12
S'AIRPORT'
p3576
sa(dp3577
g2
S'HCO'
p3578
sg4
S'HALLOCK MUNI'
p3579
sg6
S'-96.9430027778'
p3580
sg8
S'MINNESOTA'
p3581
sg10
S'48.7527305556'
p3582
sg12
S'AIRPORT'
p3583
sa(dp3584
g2
S'04Y'
p3585
sg4
S'HAWLEY MUNI'
p3586
sg6
S'-96.3506111111'
p3587
sg8
S'MINNESOTA'
p3588
sg10
S'46.8837777778'
p3589
sg12
S'AIRPORT'
p3590
sa(dp3591
g2
S'1D6'
p3592
sg4
S'HECTOR MUNI'
p3593
sg6
S'-94.7118972222'
p3594
sg8
S'MINNESOTA'
p3595
sg10
S'44.7312027778'
p3596
sg12
S'AIRPORT'
p3597
sa(dp3598
g2
S'05Y'
p3599
sg4
S'HENNING MUNI'
p3600
sg6
S'-95.4394805556'
p3601
sg8
S'MINNESOTA'
p3602
sg10
S'46.30385'
p3603
sg12
S'AIRPORT'
p3604
sa(dp3605
g2
S'06Y'
p3606
sg4
S'HERMAN MUNI'
p3607
sg6
S'-96.1606138889'
p3608
sg8
S'MINNESOTA'
p3609
sg10
S'45.8299583333'
p3610
sg12
S'AIRPORT'
p3611
sa(dp3612
g2
S'HIB'
p3613
sg4
S'RANGE RGNL'
p3614
sg6
S'-92.8389722222'
p3615
sg8
S'MINNESOTA'
p3616
sg10
S'47.3865833333'
p3617
sg12
S'AIRPORT'
p3618
sa(dp3619
g2
S'07Y'
p3620
sg4
S'HILL CITY-QUADNA MOUNTAIN'
p3621
sg6
S'-93.5974416667'
p3622
sg8
S'MINNESOTA'
p3623
sg10
S'46.9558944444'
p3624
sg12
S'AIRPORT'
p3625
sa(dp3626
g2
S'04W'
p3627
sg4
S'FIELD OF DREAMS'
p3628
sg6
S'-92.8951722222'
p3629
sg8
S'MINNESOTA'
p3630
sg10
S'46.0228666667'
p3631
sg12
S'AIRPORT'
p3632
sa(dp3633
g2
S'HCD'
p3634
sg4
S'HUTCHINSON MUNI-BUTLER FIELD'
p3635
sg6
S'-94.3825'
p3636
sg8
S'MINNESOTA'
p3637
sg10
S'44.8598888889'
p3638
sg12
S'AIRPORT'
p3639
sa(dp3640
g2
S'INL'
p3641
sg4
S'FALLS INTL-EINARSON FIELD'
p3642
sg6
S'-93.4021666667'
p3643
sg8
S'MINNESOTA'
p3644
sg10
S'48.5655833333'
p3645
sg12
S'AIRPORT'
p3646
sa(dp3647
g2
S'09I'
p3648
sg4
S'INTERNATIONAL FALLS'
p3649
sg6
S'-93.3708333333'
p3650
sg8
S'MINNESOTA'
p3651
sg10
S'48.6058333333'
p3652
sg12
S'SEAPLANE BASE'
p3653
sa(dp3654
g2
S'09Y'
p3655
sg4
S'WIPLINE'
p3656
sg6
S'-93.0087222222'
p3657
sg8
S'MINNESOTA'
p3658
sg10
S'44.8275555556'
p3659
sg12
S'SEAPLANE BASE'
p3660
sa(dp3661
g2
S'MJQ'
p3662
sg4
S'JACKSON MUNI'
p3663
sg6
S'-94.9865722222'
p3664
sg8
S'MINNESOTA'
p3665
sg10
S'43.6501416667'
p3666
sg12
S'AIRPORT'
p3667
sa(dp3668
g2
S'23D'
p3669
sg4
S'KARLSTAD MUNI'
p3670
sg6
S'-96.5412666667'
p3671
sg8
S'MINNESOTA'
p3672
sg10
S'48.5776'
p3673
sg12
S'AIRPORT'
p3674
sa(dp3675
g2
S'12Y'
p3676
sg4
S'LE SUEUR MUNI'
p3677
sg6
S'-93.9158472222'
p3678
sg8
S'MINNESOTA'
p3679
sg10
S'44.4408861111'
p3680
sg12
S'AIRPORT'
p3681
sa(dp3682
g2
S'8Y4'
p3683
sg4
S'SURFSIDE'
p3684
sg6
S'-93.1168888889'
p3685
sg8
S'MINNESOTA'
p3686
sg10
S'45.1499638889'
p3687
sg12
S'SEAPLANE BASE'
p3688
sa(dp3689
g2
S'LJF'
p3690
sg4
S'LITCHFIELD MUNI'
p3691
sg6
S'-94.50725'
p3692
sg8
S'MINNESOTA'
p3693
sg10
S'45.0971388889'
p3694
sg12
S'AIRPORT'
p3695
sa(dp3696
g2
S'LXL'
p3697
sg4
S'LITTLE FALLS/MORRISON COUNTY-LINDBERGH FLD'
p3698
sg6
S'-94.3470555556'
p3699
sg8
S'MINNESOTA'
p3700
sg10
S'45.9494166667'
p3701
sg12
S'AIRPORT'
p3702
sa(dp3703
g2
S'13Y'
p3704
sg4
S'LITTLEFORK MUNI/HANOVER'
p3705
sg6
S'-93.579425'
p3706
sg8
S'MINNESOTA'
p3707
sg10
S'48.4082777778'
p3708
sg12
S'AIRPORT'
p3709
sa(dp3710
g2
S'14Y'
p3711
sg4
S'TODD FIELD'
p3712
sg6
S'-94.8738611111'
p3713
sg8
S'MINNESOTA'
p3714
sg10
S'45.89825'
p3715
sg12
S'AIRPORT'
p3716
sa(dp3717
g2
S'XVG'
p3718
sg4
S'LONGVILLE MUNI'
p3719
sg6
S'-94.2036388889'
p3720
sg8
S'MINNESOTA'
p3721
sg10
S'46.9899166667'
p3722
sg12
S'AIRPORT'
p3723
sa(dp3724
g2
S'LYV'
p3725
sg4
S'QUENTIN AANENSON FIELD'
p3726
sg6
S'-96.2177361111'
p3727
sg8
S'MINNESOTA'
p3728
sg10
S'43.6167666667'
p3729
sg12
S'AIRPORT'
p3730
sa(dp3731
g2
S'DXX'
p3732
sg4
S'LAC QUI PARLE COUNTY'
p3733
sg6
S'-96.1778583333'
p3734
sg8
S'MINNESOTA'
p3735
sg10
S'44.9864333333'
p3736
sg12
S'AIRPORT'
p3737
sa(dp3738
g2
S'3N8'
p3739
sg4
S'MAHNOMEN COUNTY'
p3740
sg6
S'-95.9280861111'
p3741
sg8
S'MINNESOTA'
p3742
sg10
S'47.2605027778'
p3743
sg12
S'AIRPORT'
p3744
sa(dp3745
g2
S'MKT'
p3746
sg4
S'MANKATO RGNL'
p3747
sg6
S'-93.9193055556'
p3748
sg8
S'MINNESOTA'
p3749
sg10
S'44.2227777778'
p3750
sg12
S'AIRPORT'
p3751
sa(dp3752
g2
S'MGG'
p3753
sg4
S'MAPLE LAKE MUNI-BILL MAVENCAMP SR FLD'
p3754
sg6
S'-93.9855888889'
p3755
sg8
S'MINNESOTA'
p3756
sg10
S'45.2359916667'
p3757
sg12
S'AIRPORT'
p3758
sa(dp3759
g2
S'MML'
p3760
sg4
S'SOUTHWEST MINNESOTA RGNL MARSHALL/RYAN FLD'
p3761
sg6
S'-95.8244166667'
p3762
sg8
S'MINNESOTA'
p3763
sg10
S'44.4517222222'
p3764
sg12
S'AIRPORT'
p3765
sa(dp3766
g2
S'HZX'
p3767
sg4
S'ISEDOR IVERSON'
p3768
sg6
S'-93.3098111111'
p3769
sg8
S'MINNESOTA'
p3770
sg10
S'46.6187972222'
p3771
sg12
S'AIRPORT'
p3772
sa(dp3773
g2
S'18Y'
p3774
sg4
S'MILACA MUNI'
p3775
sg6
S'-93.6321833333'
p3776
sg8
S'MINNESOTA'
p3777
sg10
S'45.7724638889'
p3778
sg12
S'AIRPORT'
p3779
sa(dp3780
g2
S'LVN'
p3781
sg4
S'AIRLAKE'
p3782
sg6
S'-93.2280833333'
p3783
sg8
S'MINNESOTA'
p3784
sg10
S'44.6278611111'
p3785
sg12
S'AIRPORT'
p3786
sa(dp3787
g2
S'ANE'
p3788
sg4
S'ANOKA COUNTY-BLAINE ARPT (JANES FIELD)'
p3789
sg6
S'-93.2101944444'
p3790
sg8
S'MINNESOTA'
p3791
sg10
S'45.1448888889'
p3792
sg12
S'AIRPORT'
p3793
sa(dp3794
g2
S'MIC'
p3795
sg4
S'CRYSTAL'
p3796
sg6
S'-93.3539444444'
p3797
sg8
S'MINNESOTA'
p3798
sg10
S'45.062'
p3799
sg12
S'AIRPORT'
p3800
sa(dp3801
g2
S'FCM'
p3802
sg4
S'FLYING CLOUD'
p3803
sg6
S'-93.4585833333'
p3804
sg8
S'MINNESOTA'
p3805
sg10
S'44.8275'
p3806
sg12
S'AIRPORT'
p3807
sa(dp3808
g2
S'MSP'
p3809
sg4
S'MINNEAPOLIS-ST PAUL INTL/WOLD-CHAMBERLAIN'
p3810
sg6
S'-93.2217777778'
p3811
sg8
S'MINNESOTA'
p3812
sg10
S'44.8819722222'
p3813
sg12
S'AIRPORT'
p3814
sa(dp3815
g2
S'MVE'
p3816
sg4
S'MONTEVIDEO-CHIPPEWA COUNTY'
p3817
sg6
S'-95.7103888889'
p3818
sg8
S'MINNESOTA'
p3819
sg10
S'44.9691944444'
p3820
sg12
S'AIRPORT'
p3821
sa(dp3822
g2
S'JKJ'
p3823
sg4
S'MOORHEAD MUNI'
p3824
sg6
S'-96.6640277778'
p3825
sg8
S'MINNESOTA'
p3826
sg10
S'46.8392777778'
p3827
sg12
S'AIRPORT'
p3828
sa(dp3829
g2
S'MZH'
p3830
sg4
S'MOOSE LAKE CARLTON COUNTY'
p3831
sg6
S'-92.8047777778'
p3832
sg8
S'MINNESOTA'
p3833
sg10
S'46.4186111111'
p3834
sg12
S'AIRPORT'
p3835
sa(dp3836
g2
S'JMR'
p3837
sg4
S'MORA MUNI'
p3838
sg6
S'-93.2711666667'
p3839
sg8
S'MINNESOTA'
p3840
sg10
S'45.8892222222'
p3841
sg12
S'AIRPORT'
p3842
sa(dp3843
g2
S'MOX'
p3844
sg4
S'MORRIS MUNI - CHARLIE SCHMIDT FLD'
p3845
sg6
S'-95.9671861111'
p3846
sg8
S'MINNESOTA'
p3847
sg10
S'45.5659666667'
p3848
sg12
S'AIRPORT'
p3849
sa(dp3850
g2
S'22Y'
p3851
sg4
S"MOREY'S"
p3852
sg6
S'-94.6386222222'
p3853
sg8
S'MINNESOTA'
p3854
sg10
S'46.323575'
p3855
sg12
S'AIRPORT'
p3856
sa(dp3857
g2
S'23Y'
p3858
sg4
S'MURDOCK MUNI'
p3859
sg6
S'-95.4011333333'
p3860
sg8
S'MINNESOTA'
p3861
sg10
S'45.2221805556'
p3862
sg12
S'AIRPORT'
p3863
sa(dp3864
g2
S'5C3'
p3865
sg4
S'NARY NATIONAL-SHEFLAND FIELD'
p3866
sg6
S'-94.79875'
p3867
sg8
S'MINNESOTA'
p3868
sg10
S'47.3753888889'
p3869
sg12
S'AIRPORT'
p3870
sa(dp3871
g2
S'ULM'
p3872
sg4
S'NEW ULM MUNI'
p3873
sg6
S'-94.5016416667'
p3874
sg8
S'MINNESOTA'
p3875
sg10
S'44.3183861111'
p3876
sg12
S'AIRPORT'
p3877
sa(dp3878
g2
S'43Y'
p3879
sg4
S'NORTHOME MUNI'
p3880
sg6
S'-94.258275'
p3881
sg8
S'MINNESOTA'
p3882
sg10
S'47.8880944444'
p3883
sg12
S'AIRPORT'
p3884
sa(dp3885
g2
S'OVL'
p3886
sg4
S'OLIVIA RGNL'
p3887
sg6
S'-95.0327777778'
p3888
sg8
S'MINNESOTA'
p3889
sg10
S'44.7785694444'
p3890
sg12
S'AIRPORT'
p3891
sa(dp3892
g2
S'ORB'
p3893
sg4
S'ORR RGNL'
p3894
sg6
S'-92.8560555556'
p3895
sg8
S'MINNESOTA'
p3896
sg10
S'48.0159166667'
p3897
sg12
S'AIRPORT'
p3898
sa(dp3899
g2
S'VVV'
p3900
sg4
S'ORTONVILLE MUNI-MARTINSON FIELD'
p3901
sg6
S'-96.4246083333'
p3902
sg8
S'MINNESOTA'
p3903
sg10
S'45.3041277778'
p3904
sg12
S'AIRPORT'
p3905
sa(dp3906
g2
S'OWA'
p3907
sg4
S'OWATONNA DEGNER RGNL'
p3908
sg6
S'-93.258825'
p3909
sg8
S'MINNESOTA'
p3910
sg10
S'44.12295'
p3911
sg12
S'AIRPORT'
p3912
sa(dp3913
g2
S'PKD'
p3914
sg4
S'PARK RAPIDS MUNI-KONSHOK FIELD'
p3915
sg6
S'-95.0731055556'
p3916
sg8
S'MINNESOTA'
p3917
sg10
S'46.9012027778'
p3918
sg12
S'AIRPORT'
p3919
sa(dp3920
g2
S'PEX'
p3921
sg4
S'PAYNESVILLE MUNI'
p3922
sg6
S'-94.744725'
p3923
sg8
S'MINNESOTA'
p3924
sg10
S'45.3720611111'
p3925
sg12
S'AIRPORT'
p3926
sa(dp3927
g2
S'47Y'
p3928
sg4
S"PELICAN RAPIDS MUNI-LYON'S FIELD"
p3929
sg6
S'-96.1045'
p3930
sg8
S'MINNESOTA'
p3931
sg10
S'46.641625'
p3932
sg12
S'AIRPORT'
p3933
sa(dp3934
g2
S'16D'
p3935
sg4
S'PERHAM MUNI'
p3936
sg6
S'-95.6061111111'
p3937
sg8
S'MINNESOTA'
p3938
sg10
S'46.6109722222'
p3939
sg12
S'AIRPORT'
p3940
sa(dp3941
g2
S'PWC'
p3942
sg4
S'PINE RIVER RGNL'
p3943
sg6
S'-94.3817'
p3944
sg8
S'MINNESOTA'
p3945
sg10
S'46.7247861111'
p3946
sg12
S'AIRPORT'
p3947
sa(dp3948
g2
S'48Y'
p3949
sg4
S'PINEY PINECREEK BORDER'
p3950
sg6
S'-95.9820861111'
p3951
sg8
S'MINNESOTA'
p3952
sg10
S'48.9989722222'
p3953
sg12
S'AIRPORT'
p3954
sa(dp3955
g2
S'PQN'
p3956
sg4
S'PIPESTONE MUNI'
p3957
sg6
S'-96.3004055556'
p3958
sg8
S'MINNESOTA'
p3959
sg10
S'43.9821305556'
p3960
sg12
S'AIRPORT'
p3961
sa(dp3962
g2
S'FKA'
p3963
sg4
S'FILLMORE COUNTY'
p3964
sg6
S'-92.17975'
p3965
sg8
S'MINNESOTA'
p3966
sg10
S'43.67675'
p3967
sg12
S'AIRPORT'
p3968
sa(dp3969
g2
S'PNM'
p3970
sg4
S'PRINCETON MUNI'
p3971
sg6
S'-93.6082222222'
p3972
sg8
S'MINNESOTA'
p3973
sg10
S'45.5598611111'
p3974
sg12
S'AIRPORT'
p3975
sa(dp3976
g2
S'D81'
p3977
sg4
S'RED LAKE FALLS MUNI'
p3978
sg6
S'-96.257825'
p3979
sg8
S'MINNESOTA'
p3980
sg10
S'47.8249666667'
p3981
sg12
S'AIRPORT'
p3982
sa(dp3983
g2
S'RGK'
p3984
sg4
S'RED WING RGNL'
p3985
sg6
S'-92.4849722222'
p3986
sg8
S'MINNESOTA'
p3987
sg10
S'44.5893611111'
p3988
sg12
S'AIRPORT'
p3989
sa(dp3990
g2
S'RWF'
p3991
sg4
S'REDWOOD FALLS MUNI'
p3992
sg6
S'-95.082'
p3993
sg8
S'MINNESOTA'
p3994
sg10
S'44.5468888889'
p3995
sg12
S'AIRPORT'
p3996
sa(dp3997
g2
S'52Y'
p3998
sg4
S'REMER MUNI'
p3999
sg6
S'-93.9141222222'
p4000
sg8
S'MINNESOTA'
p4001
sg10
S'47.0680083333'
p4002
sg12
S'AIRPORT'
p4003
sa(dp4004
g2
S'RST'
p4005
sg4
S'ROCHESTER INTL'
p4006
sg6
S'-92.5000277778'
p4007
sg8
S'MINNESOTA'
p4008
sg10
S'43.9082777778'
p4009
sg12
S'AIRPORT'
p4010
sa(dp4011
g2
S'ROX'
p4012
sg4
S'ROSEAU MUNI/RUDY BILLBERG FIELD'
p4013
sg6
S'-95.6969444444'
p4014
sg8
S'MINNESOTA'
p4015
sg10
S'48.85625'
p4016
sg12
S'AIRPORT'
p4017
sa(dp4018
g2
S'ROS'
p4019
sg4
S'RUSH CITY RGNL'
p4020
sg6
S'-92.9521666667'
p4021
sg8
S'MINNESOTA'
p4022
sg10
S'45.6971388889'
p4023
sg12
S'AIRPORT'
p4024
sa(dp4025
g2
S'55Y'
p4026
sg4
S'RUSHFORD MUNI'
p4027
sg6
S'-91.8300944444'
p4028
sg8
S'MINNESOTA'
p4029
sg10
S'43.815825'
p4030
sg12
S'AIRPORT'
p4031
sa(dp4032
g2
S'D39'
p4033
sg4
S'SAUK CENTRE MUNI'
p4034
sg6
S'-94.9332444444'
p4035
sg8
S'MINNESOTA'
p4036
sg10
S'45.7066'
p4037
sg12
S'AIRPORT'
p4038
sa(dp4039
g2
S'BFW'
p4040
sg4
S'SILVER BAY MUNI'
p4041
sg6
S'-91.4155833333'
p4042
sg8
S'MINNESOTA'
p4043
sg10
S'47.2490277778'
p4044
sg12
S'AIRPORT'
p4045
sa(dp4046
g2
S'DVP'
p4047
sg4
S'SLAYTON MUNI'
p4048
sg6
S'-95.7826111111'
p4049
sg8
S'MINNESOTA'
p4050
sg10
S'43.9867916667'
p4051
sg12
S'AIRPORT'
p4052
sa(dp4053
g2
S'Y58'
p4054
sg4
S'SLEEPY EYE MUNI'
p4055
sg6
S'-94.716925'
p4056
sg8
S'MINNESOTA'
p4057
sg10
S'44.2499583333'
p4058
sg12
S'AIRPORT'
p4059
sa(dp4060
g2
S'SGS'
p4061
sg4
S'SOUTH ST PAUL MUNI-RICHARD E FLEMING FLD'
p4062
sg6
S'-93.0328611111'
p4063
sg8
S'MINNESOTA'
p4064
sg10
S'44.8571388889'
p4065
sg12
S'AIRPORT'
p4066
sa(dp4067
g2
S'D42'
p4068
sg4
S'SPRINGFIELD MUNI'
p4069
sg6
S'-94.9989166667'
p4070
sg8
S'MINNESOTA'
p4071
sg10
S'44.2310555556'
p4072
sg12
S'AIRPORT'
p4073
sa(dp4074
g2
S'STC'
p4075
sg4
S'ST CLOUD RGNL'
p4076
sg6
S'-94.0598888889'
p4077
sg8
S'MINNESOTA'
p4078
sg10
S'45.5465555556'
p4079
sg12
S'AIRPORT'
p4080
sa(dp4081
g2
S'JYG'
p4082
sg4
S'ST JAMES MUNI'
p4083
sg6
S'-94.5579722222'
p4084
sg8
S'MINNESOTA'
p4085
sg10
S'43.9863527778'
p4086
sg12
S'AIRPORT'
p4087
sa(dp4088
g2
S'21D'
p4089
sg4
S'LAKE ELMO'
p4090
sg6
S'-92.8556805556'
p4091
sg8
S'MINNESOTA'
p4092
sg10
S'44.9974916667'
p4093
sg12
S'AIRPORT'
p4094
sa(dp4095
g2
S'STP'
p4096
sg4
S'ST PAUL DOWNTOWN HOLMAN FLD'
p4097
sg6
S'-93.0603416667'
p4098
sg8
S'MINNESOTA'
p4099
sg10
S'44.9346222222'
p4100
sg12
S'AIRPORT'
p4101
sa(dp4102
g2
S'SYN'
p4103
sg4
S'STANTON AIRFIELD'
p4104
sg6
S'-93.0163194444'
p4105
sg8
S'MINNESOTA'
p4106
sg10
S'44.4755222222'
p4107
sg12
S'AIRPORT'
p4108
sa(dp4109
g2
S'SAZ'
p4110
sg4
S'STAPLES MUNI'
p4111
sg6
S'-94.8066'
p4112
sg8
S'MINNESOTA'
p4113
sg10
S'46.3808777778'
p4114
sg12
S'AIRPORT'
p4115
sa(dp4116
g2
S'D32'
p4117
sg4
S'STARBUCK MUNI'
p4118
sg6
S'-95.5361527778'
p4119
sg8
S'MINNESOTA'
p4120
sg10
S'45.5991611111'
p4121
sg12
S'AIRPORT'
p4122
sa(dp4123
g2
S'D41'
p4124
sg4
S'STEPHEN MUNI'
p4125
sg6
S'-96.8628388889'
p4126
sg8
S'MINNESOTA'
p4127
sg10
S'48.4583111111'
p4128
sg12
S'AIRPORT'
p4129
sa(dp4130
g2
S'TVF'
p4131
sg4
S'THIEF RIVER FALLS RGNL'
p4132
sg6
S'-96.185'
p4133
sg8
S'MINNESOTA'
p4134
sg10
S'48.0656666667'
p4135
sg12
S'AIRPORT'
p4136
sa(dp4137
g2
S'12D'
p4138
sg4
S'TOWER MUNI'
p4139
sg6
S'-92.2860666667'
p4140
sg8
S'MINNESOTA'
p4141
sg10
S'47.8181555556'
p4142
sg12
S'AIRPORT'
p4143
sa(dp4144
g2
S'TKC'
p4145
sg4
S'TRACY MUNI'
p4146
sg6
S'-95.6073694444'
p4147
sg8
S'MINNESOTA'
p4148
sg10
S'44.2494805556'
p4149
sg12
S'AIRPORT'
p4150
sa(dp4151
g2
S'TWM'
p4152
sg4
S'RICHARD B HELGESON'
p4153
sg6
S'-91.7452222222'
p4154
sg8
S'MINNESOTA'
p4155
sg10
S'47.0491388889'
p4156
sg12
S'AIRPORT'
p4157
sa(dp4158
g2
S'63Y'
p4159
sg4
S'TYLER MUNI'
p4160
sg6
S'-96.1503111111'
p4161
sg8
S'MINNESOTA'
p4162
sg10
S'44.2916305556'
p4163
sg12
S'AIRPORT'
p4164
sa(dp4165
g2
S'ADC'
p4166
sg4
S'WADENA MUNI'
p4167
sg6
S'-95.2108305556'
p4168
sg8
S'MINNESOTA'
p4169
sg10
S'46.4499444444'
p4170
sg12
S'AIRPORT'
p4171
sa(dp4172
g2
S'Y49'
p4173
sg4
S'WALKER MUNI'
p4174
sg6
S'-94.6453444444'
p4175
sg8
S'MINNESOTA'
p4176
sg10
S'47.1594805556'
p4177
sg12
S'AIRPORT'
p4178
sa(dp4179
g2
S'D37'
p4180
sg4
S'WARREN MUNI'
p4181
sg6
S'-96.7113055556'
p4182
sg8
S'MINNESOTA'
p4183
sg10
S'48.1911666667'
p4184
sg12
S'AIRPORT'
p4185
sa(dp4186
g2
S'RRT'
p4187
sg4
S'WARROAD INTL MEMORIAL'
p4188
sg6
S'-95.3484722222'
p4189
sg8
S'MINNESOTA'
p4190
sg10
S'48.9414722222'
p4191
sg12
S'AIRPORT'
p4192
sa(dp4193
g2
S'ACQ'
p4194
sg4
S'WASECA MUNI'
p4195
sg6
S'-93.5529416667'
p4196
sg8
S'MINNESOTA'
p4197
sg10
S'44.0734638889'
p4198
sg12
S'AIRPORT'
p4199
sa(dp4200
g2
S'VWU'
p4201
sg4
S'WASKISH MUNI'
p4202
sg6
S'-94.5174722222'
p4203
sg8
S'MINNESOTA'
p4204
sg10
S'48.1475638889'
p4205
sg12
S'AIRPORT'
p4206
sa(dp4207
g2
S'M49'
p4208
sg4
S'JOLLY FISHERMAN'
p4209
sg6
S'-95.5289166667'
p4210
sg8
S'MINNESOTA'
p4211
sg10
S'47.1430138889'
p4212
sg12
S'SEAPLANE BASE'
p4213
sa(dp4214
g2
S'68Y'
p4215
sg4
S'WELLS MUNI'
p4216
sg6
S'-93.7835583333'
p4217
sg8
S'MINNESOTA'
p4218
sg10
S'43.7332861111'
p4219
sg12
S'AIRPORT'
p4220
sa(dp4221
g2
S'ETH'
p4222
sg4
S'WHEATON MUNI'
p4223
sg6
S'-96.5437972222'
p4224
sg8
S'MINNESOTA'
p4225
sg10
S'45.7805055556'
p4226
sg12
S'AIRPORT'
p4227
sa(dp4228
g2
S'BDH'
p4229
sg4
S'WILLMAR MUNI-JOHN L RICE FIELD'
p4230
sg6
S'-95.1293333333'
p4231
sg8
S'MINNESOTA'
p4232
sg10
S'45.1170277778'
p4233
sg12
S'AIRPORT'
p4234
sa(dp4235
g2
S'MWM'
p4236
sg4
S'WINDOM MUNI'
p4237
sg6
S'-95.1093888889'
p4238
sg8
S'MINNESOTA'
p4239
sg10
S'43.9134166667'
p4240
sg12
S'AIRPORT'
p4241
sa(dp4242
g2
S'ONA'
p4243
sg4
S'WINONA MUNI-MAX CONRAD FLD'
p4244
sg6
S'-91.7090277778'
p4245
sg8
S'MINNESOTA'
p4246
sg10
S'44.0775444444'
p4247
sg12
S'AIRPORT'
p4248
sa(dp4249
g2
S'10D'
p4250
sg4
S'WINSTED MUNI'
p4251
sg6
S'-94.0669166667'
p4252
sg8
S'MINNESOTA'
p4253
sg10
S'44.9499611111'
p4254
sg12
S'AIRPORT'
p4255
sa(dp4256
g2
S'OTG'
p4257
sg4
S'WORTHINGTON MUNI'
p4258
sg6
S'-95.5791944444'
p4259
sg8
S'MINNESOTA'
p4260
sg10
S'43.6550555556'
p4261
sg12
S'AIRPORT'
p4262
sa(dp4263
g2
S'1A2'
p4264
sg4
S'ARTHUR'
p4265
sg6
S'-97.2081472222'
p4266
sg8
S'NORTH DAKOTA'
p4267
sg10
S'47.1126361111'
p4268
sg12
S'AIRPORT'
p4269
sa(dp4270
g2
S'ASY'
p4271
sg4
S'ASHLEY MUNI'
p4272
sg6
S'-99.3526472222'
p4273
sg8
S'NORTH DAKOTA'
p4274
sg10
S'46.0230944444'
p4275
sg12
S'AIRPORT'
p4276
sa(dp4277
g2
S'20U'
p4278
sg4
S'BEACH'
p4279
sg6
S'-103.9820555556'
p4280
sg8
S'NORTH DAKOTA'
p4281
sg10
S'46.9251666667'
p4282
sg12
S'AIRPORT'
p4283
sa(dp4284
g2
S'95D'
p4285
sg4
S'BEULAH'
p4286
sg6
S'-101.8140555556'
p4287
sg8
S'NORTH DAKOTA'
p4288
sg10
S'47.2508388889'
p4289
sg12
S'AIRPORT'
p4290
sa(dp4291
g2
S'BIS'
p4292
sg4
S'BISMARCK MUNI'
p4293
sg6
S'-100.74575'
p4294
sg8
S'NORTH DAKOTA'
p4295
sg10
S'46.7727222222'
p4296
sg12
S'AIRPORT'
p4297
sa(dp4298
g2
S'D09'
p4299
sg4
S'BOTTINEAU MUNI'
p4300
sg6
S'-100.4173055556'
p4301
sg8
S'NORTH DAKOTA'
p4302
sg10
S'48.8304722222'
p4303
sg12
S'AIRPORT'
p4304
sa(dp4305
g2
S'5B4'
p4306
sg4
S'BOWBELLS MUNI'
p4307
sg6
S'-102.2454444444'
p4308
sg8
S'NORTH DAKOTA'
p4309
sg10
S'48.8097472222'
p4310
sg12
S'AIRPORT'
p4311
sa(dp4312
g2
S'BWW'
p4313
sg4
S'BOWMAN RGNL'
p4314
sg6
S'-103.30075'
p4315
sg8
S'NORTH DAKOTA'
p4316
sg10
S'46.1655166667'
p4317
sg12
S'AIRPORT'
p4318
sa(dp4319
g2
S'9D7'
p4320
sg4
S'CANDO MUNI'
p4321
sg6
S'-99.2363888889'
p4322
sg8
S'NORTH DAKOTA'
p4323
sg10
S'48.4800277778'
p4324
sg12
S'AIRPORT'
p4325
sa(dp4326
g2
S'46D'
p4327
sg4
S'CARRINGTON MUNI'
p4328
sg6
S'-99.1513333333'
p4329
sg8
S'NORTH DAKOTA'
p4330
sg10
S'47.4511111111'
p4331
sg12
S'AIRPORT'
p4332
sa(dp4333
g2
S'5N8'
p4334
sg4
S'CASSELTON ROBERT MILLER RGNL'
p4335
sg6
S'-97.2078611111'
p4336
sg8
S'NORTH DAKOTA'
p4337
sg10
S'46.8539444444'
p4338
sg12
S'AIRPORT'
p4339
sa(dp4340
g2
S'2C8'
p4341
sg4
S'CAVALIER MUNI'
p4342
sg6
S'-97.6319722222'
p4343
sg8
S'NORTH DAKOTA'
p4344
sg10
S'48.7837222222'
p4345
sg12
S'AIRPORT'
p4346
sa(dp4347
g2
S'D49'
p4348
sg4
S'COLUMBUS MUNI'
p4349
sg6
S'-102.7922888889'
p4350
sg8
S'NORTH DAKOTA'
p4351
sg10
S'48.8994111111'
p4352
sg12
S'AIRPORT'
p4353
sa(dp4354
g2
S'S32'
p4355
sg4
S'COOPERSTOWN MUNI'
p4356
sg6
S'-98.1058694444'
p4357
sg8
S'NORTH DAKOTA'
p4358
sg10
S'47.4227722222'
p4359
sg12
S'AIRPORT'
p4360
sa(dp4361
g2
S'D50'
p4362
sg4
S'CROSBY MUNI'
p4363
sg6
S'-103.2975805556'
p4364
sg8
S'NORTH DAKOTA'
p4365
sg10
S'48.9282972222'
p4366
sg12
S'AIRPORT'
p4367
sa(dp4368
g2
S'DVL'
p4369
sg4
S'DEVILS LAKE RGNL'
p4370
sg6
S'-98.91'
p4371
sg8
S'NORTH DAKOTA'
p4372
sg10
S'48.1165833333'
p4373
sg12
S'AIRPORT'
p4374
sa(dp4375
g2
S'DIK'
p4376
sg4
S'DICKINSON - THEODORE ROOSEVELT RGNL'
p4377
sg6
S'-102.8018611111'
p4378
sg8
S'NORTH DAKOTA'
p4379
sg10
S'46.7973333333'
p4380
sg12
S'AIRPORT'
p4381
sa(dp4382
g2
S'D29'
p4383
sg4
S'DRAYTON MUNI'
p4384
sg6
S'-97.1758972222'
p4385
sg8
S'NORTH DAKOTA'
p4386
sg10
S'48.6185138889'
p4387
sg12
S'AIRPORT'
p4388
sa(dp4389
g2
S'S28'
p4390
sg4
S'INTL PEACE GARDEN'
p4391
sg6
S'-100.0434583333'
p4392
sg8
S'NORTH DAKOTA'
p4393
sg10
S'48.9977805556'
p4394
sg12
S'AIRPORT'
p4395
sa(dp4396
g2
S'51D'
p4397
sg4
S'EDGELEY MUNI'
p4398
sg6
S'-98.735'
p4399
sg8
S'NORTH DAKOTA'
p4400
sg10
S'46.3496944444'
p4401
sg12
S'AIRPORT'
p4402
sa(dp4403
g2
S'Y71'
p4404
sg4
S'ELGIN MUNI'
p4405
sg6
S'-101.8449027778'
p4406
sg8
S'NORTH DAKOTA'
p4407
sg10
S'46.3827527778'
p4408
sg12
S'AIRPORT'
p4409
sa(dp4410
g2
S'40000000'
p4411
sg4
S'ELLENDALE MUNI'
p4412
sg6
S'-98.5156944444'
p4413
sg8
S'NORTH DAKOTA'
p4414
sg10
S'46.0163333333'
p4415
sg12
S'AIRPORT'
p4416
sa(dp4417
g2
S'5N4'
p4418
sg4
S'SKY HAVEN'
p4419
sg6
S'-97.6202305556'
p4420
sg8
S'NORTH DAKOTA'
p4421
sg10
S'46.6268611111'
p4422
sg12
S'AIRPORT'
p4423
sa(dp4424
g2
S'FAR'
p4425
sg4
S'HECTOR INTL'
p4426
sg6
S'-96.8157638889'
p4427
sg8
S'NORTH DAKOTA'
p4428
sg10
S'46.92065'
p4429
sg12
S'AIRPORT'
p4430
sa(dp4431
g2
S'D54'
p4432
sg4
S'WEST FARGO MUNI'
p4433
sg6
S'-96.9186944444'
p4434
sg8
S'NORTH DAKOTA'
p4435
sg10
S'46.9008'
p4436
sg12
S'AIRPORT'
p4437
sa(dp4438
g2
S'D24'
p4439
sg4
S'FESSENDEN-STREIBEL MUNI'
p4440
sg6
S'-99.6609555556'
p4441
sg8
S'NORTH DAKOTA'
p4442
sg10
S'47.6597222222'
p4443
sg12
S'AIRPORT'
p4444
sa(dp4445
g2
S'Y27'
p4446
sg4
S'STANDING ROCK'
p4447
sg6
S'-100.6327777778'
p4448
sg8
S'NORTH DAKOTA'
p4449
sg10
S'46.0668833333'
p4450
sg12
S'AIRPORT'
p4451
sa(dp4452
g2
S'9G9'
p4453
sg4
S'GACKLE MUNI'
p4454
sg6
S'-99.1644638889'
p4455
sg8
S'NORTH DAKOTA'
p4456
sg10
S'46.6215638889'
p4457
sg12
S'AIRPORT'
p4458
sa(dp4459
g2
S'D05'
p4460
sg4
S'GARRISON MUNI'
p4461
sg6
S'-101.4369305556'
p4462
sg8
S'NORTH DAKOTA'
p4463
sg10
S'47.6559583333'
p4464
sg12
S'AIRPORT'
p4465
sa(dp4466
g2
S'D57'
p4467
sg4
S'GLEN ULLIN RGNL'
p4468
sg6
S'-101.8651916667'
p4469
sg8
S'NORTH DAKOTA'
p4470
sg10
S'46.8143'
p4471
sg12
S'AIRPORT'
p4472
sa(dp4473
g2
S'GAF'
p4474
sg4
S'HUTSON FIELD'
p4475
sg6
S'-97.3709444444'
p4476
sg8
S'NORTH DAKOTA'
p4477
sg10
S'48.4047222222'
p4478
sg12
S'AIRPORT'
p4479
sa(dp4480
g2
S'GFK'
p4481
sg4
S'GRAND FORKS INTL'
p4482
sg6
S'-97.1737777778'
p4483
sg8
S'NORTH DAKOTA'
p4484
sg10
S'47.9472777778'
p4485
sg12
S'AIRPORT'
p4486
sa(dp4487
g2
S'GWR'
p4488
sg4
S'GWINNER-ROGER MELROE FIELD'
p4489
sg6
S'-97.6433611111'
p4490
sg8
S'NORTH DAKOTA'
p4491
sg10
S'46.2182777778'
p4492
sg12
S'AIRPORT'
p4493
sa(dp4494
g2
S'5H4'
p4495
sg4
S'HARVEY MUNI'
p4496
sg6
S'-99.93175'
p4497
sg8
S'NORTH DAKOTA'
p4498
sg10
S'47.7912222222'
p4499
sg12
S'AIRPORT'
p4500
sa(dp4501
g2
S'6H8'
p4502
sg4
S'HAZELTON MUNI'
p4503
sg6
S'-100.2637333333'
p4504
sg8
S'NORTH DAKOTA'
p4505
sg10
S'46.4822166667'
p4506
sg12
S'AIRPORT'
p4507
sa(dp4508
g2
S'HZE'
p4509
sg4
S'MERCER COUNTY RGNL'
p4510
sg6
S'-101.5809722222'
p4511
sg8
S'NORTH DAKOTA'
p4512
sg10
S'47.2899444444'
p4513
sg12
S'AIRPORT'
p4514
sa(dp4515
g2
S'HEI'
p4516
sg4
S'HETTINGER MUNI'
p4517
sg6
S'-102.656'
p4518
sg8
S'NORTH DAKOTA'
p4519
sg10
S'46.0148888889'
p4520
sg12
S'AIRPORT'
p4521
sa(dp4522
g2
S'3H4'
p4523
sg4
S'HILLSBORO MUNI'
p4524
sg6
S'-97.0604138889'
p4525
sg8
S'NORTH DAKOTA'
p4526
sg10
S'47.3594055556'
p4527
sg12
S'AIRPORT'
p4528
sa(dp4529
g2
S'JMS'
p4530
sg4
S'JAMESTOWN RGNL'
p4531
sg6
S'-98.6781944444'
p4532
sg8
S'NORTH DAKOTA'
p4533
sg10
S'46.9297222222'
p4534
sg12
S'AIRPORT'
p4535
sa(dp4536
g2
S'7K5'
p4537
sg4
S'KENMARE MUNI'
p4538
sg6
S'-102.0480027778'
p4539
sg8
S'NORTH DAKOTA'
p4540
sg10
S'48.6676111111'
p4541
sg12
S'AIRPORT'
p4542
sa(dp4543
g2
S'9Y1'
p4544
sg4
S'DUNN COUNTY WEYDAHL FIELD'
p4545
sg6
S'-102.7718111111'
p4546
sg8
S'NORTH DAKOTA'
p4547
sg10
S'47.3913305556'
p4548
sg12
S'AIRPORT'
p4549
sa(dp4550
g2
S'K74'
p4551
sg4
S'ROBERT ODEGAARD FIELD'
p4552
sg6
S'-96.9990083333'
p4553
sg8
S'NORTH DAKOTA'
p4554
sg10
S'46.6487305556'
p4555
sg12
S'AIRPORT'
p4556
sa(dp4557
g2
S'D03'
p4558
sg4
S'KULM MUNI'
p4559
sg6
S'-98.9388333333'
p4560
sg8
S'NORTH DAKOTA'
p4561
sg10
S'46.3067638889'
p4562
sg12
S'AIRPORT'
p4563
sa(dp4564
g2
S'4F9'
p4565
sg4
S'LA MOURE ROTT MUNI'
p4566
sg6
S'-98.2814861111'
p4567
sg8
S'NORTH DAKOTA'
p4568
sg10
S'46.3472805556'
p4569
sg12
S'AIRPORT'
p4570
sa(dp4571
g2
S'5L0'
p4572
sg4
S'LAKOTA MUNI'
p4573
sg6
S'-98.32575'
p4574
sg8
S'NORTH DAKOTA'
p4575
sg10
S'48.0289166667'
p4576
sg12
S'AIRPORT'
p4577
sa(dp4578
g2
S'D55'
p4579
sg4
S'ROBERTSON FIELD'
p4580
sg6
S'-98.3937666667'
p4581
sg8
S'NORTH DAKOTA'
p4582
sg10
S'48.7531305556'
p4583
sg12
S'AIRPORT'
p4584
sa(dp4585
g2
S'2L1'
p4586
sg4
S'LARIMORE MUNI'
p4587
sg6
S'-97.6409722222'
p4588
sg8
S'NORTH DAKOTA'
p4589
sg10
S'47.9067138889'
p4590
sg12
S'AIRPORT'
p4591
sa(dp4592
g2
S'D31'
p4593
sg4
S'LEEDS MUNI'
p4594
sg6
S'-99.4034666667'
p4595
sg8
S'NORTH DAKOTA'
p4596
sg10
S'48.2849972222'
p4597
sg12
S'AIRPORT'
p4598
sa(dp4599
g2
S'4N4'
p4600
sg4
S'LIDGERWOOD MUNI'
p4601
sg6
S'-97.1661333333'
p4602
sg8
S'NORTH DAKOTA'
p4603
sg10
S'46.0891833333'
p4604
sg12
S'AIRPORT'
p4605
sa(dp4606
g2
S'7L2'
p4607
sg4
S'LINTON MUNI'
p4608
sg6
S'-100.2456222222'
p4609
sg8
S'NORTH DAKOTA'
p4610
sg10
S'46.2206388889'
p4611
sg12
S'AIRPORT'
p4612
sa(dp4613
g2
S'6L3'
p4614
sg4
S'LISBON MUNI'
p4615
sg6
S'-97.7282138889'
p4616
sg8
S'NORTH DAKOTA'
p4617
sg10
S'46.4469722222'
p4618
sg12
S'AIRPORT'
p4619
sa(dp4620
g2
S'6D3'
p4621
sg4
S'MADDOCK MUNI'
p4622
sg6
S'-99.5269583333'
p4623
sg8
S'NORTH DAKOTA'
p4624
sg10
S'47.9802611111'
p4625
sg12
S'AIRPORT'
p4626
sa(dp4627
g2
S'Y19'
p4628
sg4
S'MANDAN MUNI'
p4629
sg6
S'-100.8943611111'
p4630
sg8
S'NORTH DAKOTA'
p4631
sg10
S'46.7679722222'
p4632
sg12
S'AIRPORT'
p4633
sa(dp4634
g2
S'D56'
p4635
sg4
S'MAYVILLE MUNI'
p4636
sg6
S'-97.3280805556'
p4637
sg8
S'NORTH DAKOTA'
p4638
sg10
S'47.4768416667'
p4639
sg12
S'AIRPORT'
p4640
sa(dp4641
g2
S'7G2'
p4642
sg4
S'MC CLUSKY MUNI'
p4643
sg6
S'-100.4872277778'
p4644
sg8
S'NORTH DAKOTA'
p4645
sg10
S'47.4620472222'
p4646
sg12
S'AIRPORT'
p4647
sa(dp4648
g2
S'8M6'
p4649
sg4
S'MC VILLE MUNI'
p4650
sg6
S'-98.1849138889'
p4651
sg8
S'NORTH DAKOTA'
p4652
sg10
S'47.7703166667'
p4653
sg12
S'AIRPORT'
p4654
sa(dp4655
g2
S'4R6'
p4656
sg4
S'MILNOR MUNI'
p4657
sg6
S'-97.4378666667'
p4658
sg8
S'NORTH DAKOTA'
p4659
sg10
S'46.2582916667'
p4660
sg12
S'AIRPORT'
p4661
sa(dp4662
g2
S'MOT'
p4663
sg4
S'MINOT INTL'
p4664
sg6
S'-101.2780277778'
p4665
sg8
S'NORTH DAKOTA'
p4666
sg10
S'48.2576388889'
p4667
sg12
S'AIRPORT'
p4668
sa(dp4669
g2
S'D06'
p4670
sg4
S'MINTO MUNI'
p4671
sg6
S'-97.3940222222'
p4672
sg8
S'NORTH DAKOTA'
p4673
sg10
S'48.2926027778'
p4674
sg12
S'AIRPORT'
p4675
sa(dp4676
g2
S'HBC'
p4677
sg4
S'MOHALL MUNI'
p4678
sg6
S'-101.5369944444'
p4679
sg8
S'NORTH DAKOTA'
p4680
sg10
S'48.7683833333'
p4681
sg12
S'AIRPORT'
p4682
sa(dp4683
g2
S'3P3'
p4684
sg4
S'MOTT MUNI'
p4685
sg6
S'-102.3282444444'
p4686
sg8
S'NORTH DAKOTA'
p4687
sg10
S'46.3591638889'
p4688
sg12
S'AIRPORT'
p4689
sa(dp4690
g2
S'5B5'
p4691
sg4
S'NAPOLEON MUNI'
p4692
sg6
S'-99.7593694444'
p4693
sg8
S'NORTH DAKOTA'
p4694
sg10
S'46.4942111111'
p4695
sg12
S'AIRPORT'
p4696
sa(dp4697
g2
S'8J7'
p4698
sg4
S'TOMLINSON FIELD'
p4699
sg6
S'-99.1312277778'
p4700
sg8
S'NORTH DAKOTA'
p4701
sg10
S'47.6963861111'
p4702
sg12
S'AIRPORT'
p4703
sa(dp4704
g2
S'05D'
p4705
sg4
S'NEW TOWN MUNI'
p4706
sg6
S'-102.4780861111'
p4707
sg8
S'NORTH DAKOTA'
p4708
sg10
S'47.9678694444'
p4709
sg12
S'AIRPORT'
p4710
sa(dp4711
g2
S'4V4'
p4712
sg4
S'NORTHWOOD MUNI-VINCE FIELD'
p4713
sg6
S'-97.5898111111'
p4714
sg8
S'NORTH DAKOTA'
p4715
sg10
S'47.7248861111'
p4716
sg12
S'AIRPORT'
p4717
sa(dp4718
g2
S'2D5'
p4719
sg4
S'OAKES MUNI'
p4720
sg6
S'-98.0800361111'
p4721
sg8
S'NORTH DAKOTA'
p4722
sg10
S'46.1732944444'
p4723
sg12
S'AIRPORT'
p4724
sa(dp4725
g2
S'64G'
p4726
sg4
S'PAGE RGNL'
p4727
sg6
S'-97.4819166667'
p4728
sg8
S'NORTH DAKOTA'
p4729
sg10
S'47.1701944444'
p4730
sg12
S'AIRPORT'
p4731
sa(dp4732
g2
S'Y37'
p4733
sg4
S'PARK RIVER - W C SKJERVEN FIELD'
p4734
sg6
S'-97.7807777778'
p4735
sg8
S'NORTH DAKOTA'
p4736
sg10
S'48.3940833333'
p4737
sg12
S'AIRPORT'
p4738
sa(dp4739
g2
S'Y74'
p4740
sg4
S'PARSHALL-HANKINS'
p4741
sg6
S'-102.1421388889'
p4742
sg8
S'NORTH DAKOTA'
p4743
sg10
S'47.9356833333'
p4744
sg12
S'AIRPORT'
p4745
sa(dp4746
g2
S'PMB'
p4747
sg4
S'PEMBINA MUNI'
p4748
sg6
S'-97.2406666667'
p4749
sg8
S'NORTH DAKOTA'
p4750
sg10
S'48.9424166667'
p4751
sg12
S'AIRPORT'
p4752
sa(dp4753
g2
S'Y99'
p4754
sg4
S'TRULSON FIELD'
p4755
sg6
S'-101.9532222222'
p4756
sg8
S'NORTH DAKOTA'
p4757
sg10
S'48.0305666667'
p4758
sg12
S'AIRPORT'
p4759
sa(dp4760
g2
S'400000000'
p4761
sg4
S'RICHARDTON'
p4762
sg6
S'-102.3567444444'
p4763
sg8
S'NORTH DAKOTA'
p4764
sg10
S'46.8958166667'
p4765
sg12
S'AIRPORT'
p4766
sa(dp4767
g2
S'37N'
p4768
sg4
S'GARRISON DAM RECREATIONAL AIRPARK'
p4769
sg6
S'-101.4081472222'
p4770
sg8
S'NORTH DAKOTA'
p4771
sg10
S'47.4827277778'
p4772
sg12
S'AIRPORT'
p4773
sa(dp4774
g2
S'2H9'
p4775
sg4
S'ROLETTE'
p4776
sg6
S'-99.8531611111'
p4777
sg8
S'NORTH DAKOTA'
p4778
sg10
S'48.6668611111'
p4779
sg12
S'AIRPORT'
p4780
sa(dp4781
g2
S'06D'
p4782
sg4
S'ROLLA MUNI'
p4783
sg6
S'-99.62075'
p4784
sg8
S'NORTH DAKOTA'
p4785
sg10
S'48.8844166667'
p4786
sg12
S'AIRPORT'
p4787
sa(dp4788
g2
S'RUG'
p4789
sg4
S'RUGBY MUNI'
p4790
sg6
S'-100.0242777778'
p4791
sg8
S'NORTH DAKOTA'
p4792
sg10
S'48.3903611111'
p4793
sg12
S'AIRPORT'
p4794
sa(dp4795
g2
S'4S5'
p4796
sg4
S'ST THOMAS MUNI'
p4797
sg6
S'-97.4390555556'
p4798
sg8
S'NORTH DAKOTA'
p4799
sg10
S'48.6264361111'
p4800
sg12
S'AIRPORT'
p4801
sa(dp4802
g2
S'08D'
p4803
sg4
S'STANLEY MUNI'
p4804
sg6
S'-102.40635'
p4805
sg8
S'NORTH DAKOTA'
p4806
sg10
S'48.3007972222'
p4807
sg12
S'AIRPORT'
p4808
sa(dp4809
g2
S'D60'
p4810
sg4
S'TIOGA MUNI'
p4811
sg6
S'-102.8973611111'
p4812
sg8
S'NORTH DAKOTA'
p4813
sg10
S'48.3802777778'
p4814
sg12
S'AIRPORT'
p4815
sa(dp4816
g2
S'D61'
p4817
sg4
S'TOWNER MUNI'
p4818
sg6
S'-100.3956111111'
p4819
sg8
S'NORTH DAKOTA'
p4820
sg10
S'48.3591944444'
p4821
sg12
S'AIRPORT'
p4822
sa(dp4823
g2
S'91N'
p4824
sg4
S'TURTLE LAKE MUNI'
p4825
sg6
S'-100.9166'
p4826
sg8
S'NORTH DAKOTA'
p4827
sg10
S'47.5096055556'
p4828
sg12
S'AIRPORT'
p4829
sa(dp4830
g2
S'BAC'
p4831
sg4
S'BARNES COUNTY MUNI'
p4832
sg6
S'-98.0180166667'
p4833
sg8
S'NORTH DAKOTA'
p4834
sg10
S'46.9411833333'
p4835
sg12
S'AIRPORT'
p4836
sa(dp4837
g2
S'BWP'
p4838
sg4
S'HARRY STERN'
p4839
sg6
S'-96.6071555556'
p4840
sg8
S'NORTH DAKOTA'
p4841
sg10
S'46.2442916667'
p4842
sg12
S'AIRPORT'
p4843
sa(dp4844
g2
S'96D'
p4845
sg4
S'WALHALLA MUNI'
p4846
sg6
S'-97.902775'
p4847
sg8
S'NORTH DAKOTA'
p4848
sg10
S'48.9405722222'
p4849
sg12
S'AIRPORT'
p4850
sa(dp4851
g2
S'5C8'
p4852
sg4
S'WASHBURN MUNI'
p4853
sg6
S'-101.0258888889'
p4854
sg8
S'NORTH DAKOTA'
p4855
sg10
S'47.3511666667'
p4856
sg12
S'AIRPORT'
p4857
sa(dp4858
g2
S'S25'
p4859
sg4
S'WATFORD CITY MUNI'
p4860
sg6
S'-103.2551944444'
p4861
sg8
S'NORTH DAKOTA'
p4862
sg10
S'47.7965833333'
p4863
sg12
S'AIRPORT'
p4864
sa(dp4865
g2
S'D64'
p4866
sg4
S'WESTHOPE MUNI'
p4867
sg6
S'-101.0337222222'
p4868
sg8
S'NORTH DAKOTA'
p4869
sg10
S'48.913075'
p4870
sg12
S'AIRPORT'
p4871
sa(dp4872
g2
S'ISN'
p4873
sg4
S'SLOULIN FLD INTL'
p4874
sg6
S'-103.6423444444'
p4875
sg8
S'NORTH DAKOTA'
p4876
sg10
S'48.1779361111'
p4877
sg12
S'AIRPORT'
p4878
sa(dp4879
g2
S'6L5'
p4880
sg4
S'WISHEK MUNI'
p4881
sg6
S'-99.5396583333'
p4882
sg8
S'NORTH DAKOTA'
p4883
sg10
S'46.2496277778'
p4884
sg12
S'AIRPORT'
p4885
sa(dp4886
g2
S'0D7'
p4887
sg4
S'ADA'
p4888
sg6
S'-83.8291027778'
p4889
sg8
S'OHIO'
p4890
sg10
S'40.7906055556'
p4891
sg12
S'AIRPORT'
p4892
sa(dp4893
g2
S'AKR'
p4894
sg4
S'AKRON FULTON INTL'
p4895
sg6
S'-81.4669166667'
p4896
sg8
S'OHIO'
p4897
sg10
S'41.0375'
p4898
sg12
S'AIRPORT'
p4899
sa(dp4900
g2
S'CAK'
p4901
sg4
S'AKRON-CANTON RGNL'
p4902
sg6
S'-81.4436388889'
p4903
sg8
S'OHIO'
p4904
sg10
S'40.9150555556'
p4905
sg12
S'AIRPORT'
p4906
sa(dp4907
g2
S'1D4'
p4908
sg4
S'MAYFIELD'
p4909
sg6
S'-81.4317777778'
p4910
sg8
S'OHIO'
p4911
sg10
S'40.9925555556'
p4912
sg12
S'AIRPORT'
p4913
sa(dp4914
g2
S'2D1'
p4915
sg4
S'BARBER'
p4916
sg6
S'-81.0986666667'
p4917
sg8
S'OHIO'
p4918
sg10
S'40.9699694444'
p4919
sg12
S'AIRPORT'
p4920
sa(dp4921
g2
S'4G3'
p4922
sg4
S'MILLER'
p4923
sg6
S'-81.0421388889'
p4924
sg8
S'OHIO'
p4925
sg10
S'40.98175'
p4926
sg12
S'AIRPORT'
p4927
sa(dp4928
g2
S'3G4'
p4929
sg4
S'ASHLAND COUNTY'
p4930
sg6
S'-82.2556388889'
p4931
sg8
S'OHIO'
p4932
sg10
S'40.9029722222'
p4933
sg12
S'AIRPORT'
p4934
sa(dp4935
g2
S'HZY'
p4936
sg4
S'NORTHEAST OHIO RGNL'
p4937
sg6
S'-80.6955055556'
p4938
sg8
S'OHIO'
p4939
sg10
S'41.7779694444'
p4940
sg12
S'AIRPORT'
p4941
sa(dp4942
g2
S'UNI'
p4943
sg4
S'OHIO UNIVERSITY'
p4944
sg6
S'-82.2292527778'
p4945
sg8
S'OHIO'
p4946
sg10
S'39.2118916667'
p4947
sg12
S'AIRPORT'
p4948
sa(dp4949
g2
S'7B4'
p4950
sg4
S'MILLER FARM LANDING STRIP'
p4951
sg6
S'-82.58905'
p4952
sg8
S'OHIO'
p4953
sg10
S'39.8845055556'
p4954
sg12
S'AIRPORT'
p4955
sa(dp4956
g2
S'2D6'
p4957
sg4
S'BANNOCK'
p4958
sg6
S'-80.9753722222'
p4959
sg8
S'OHIO'
p4960
sg10
S'40.1070138889'
p4961
sg12
S'HELIPORT'
p4962
sa(dp4963
g2
S'6G5'
p4964
sg4
S'BARNESVILLE-BRADFIELD'
p4965
sg6
S'-81.1918333333'
p4966
sg8
S'OHIO'
p4967
sg10
S'40.0024166667'
p4968
sg12
S'AIRPORT'
p4969
sa(dp4970
g2
S'I69'
p4971
sg4
S'CLERMONT COUNTY'
p4972
sg6
S'-84.2102222222'
p4973
sg8
S'OHIO'
p4974
sg10
S'39.0783888889'
p4975
sg12
S'AIRPORT'
p4976
sa(dp4977
g2
S'2D7'
p4978
sg4
S'BEACH CITY'
p4979
sg6
S'-81.5559'
p4980
sg8
S'OHIO'
p4981
sg10
S'40.64635'
p4982
sg12
S'AIRPORT'
p4983
sa(dp4984
g2
S'EDJ'
p4985
sg4
S'BELLEFONTAINE RGNL'
p4986
sg6
S'-83.81925'
p4987
sg8
S'OHIO'
p4988
sg10
S'40.3722777778'
p4989
sg12
S'AIRPORT'
p4990
sa(dp4991
g2
S'5G7'
p4992
sg4
S'BLUFFTON'
p4993
sg6
S'-83.8686388889'
p4994
sg8
S'OHIO'
p4995
sg10
S'40.8854444444'
p4996
sg12
S'AIRPORT'
p4997
sa(dp4998
g2
S'3D8'
p4999
sg4
S'BORDNER'
p5000
sg6
S'-83.7231944444'
p5001
sg8
S'OHIO'
p5002
sg10
S'41.336'
p5003
sg12
S'AIRPORT'
p5004
sa(dp5005
g2
S'1G0'
p5006
sg4
S'WOOD COUNTY'
p5007
sg6
S'-83.6301388889'
p5008
sg8
S'OHIO'
p5009
sg10
S'41.391'
p5010
sg12
S'AIRPORT'
p5011
sa(dp5012
g2
S'I62'
p5013
sg4
S'BROOKVILLE AIR-PARK'
p5014
sg6
S'-84.4332805556'
p5015
sg8
S'OHIO'
p5016
sg10
S'39.8625527778'
p5017
sg12
S'AIRPORT'
p5018
sa(dp5019
g2
S'0G6'
p5020
sg4
S'WILLIAMS COUNTY'
p5021
sg6
S'-84.5067777778'
p5022
sg8
S'OHIO'
p5023
sg10
S'41.4673055556'
p5024
sg12
S'AIRPORT'
p5025
sa(dp5026
g2
S'17G'
p5027
sg4
S'PORT BUCYRUS-CRAWFORD COUNTY'
p5028
sg6
S'-82.9748055556'
p5029
sg8
S'OHIO'
p5030
sg10
S'40.7815833333'
p5031
sg12
S'AIRPORT'
p5032
sa(dp5033
g2
S'8G6'
p5034
sg4
S'HARRISON COUNTY'
p5035
sg6
S'-81.0128888889'
p5036
sg8
S'OHIO'
p5037
sg10
S'40.2383611111'
p5038
sg12
S'AIRPORT'
p5039
sa(dp5040
g2
S'I10'
p5041
sg4
S'NOBLE COUNTY'
p5042
sg6
S'-81.5363222222'
p5043
sg8
S'OHIO'
p5044
sg10
S'39.8009694444'
p5045
sg12
S'AIRPORT'
p5046
sa(dp5047
g2
S'CDI'
p5048
sg4
S'CAMBRIDGE MUNI'
p5049
sg6
S'-81.5775833333'
p5050
sg8
S'OHIO'
p5051
sg10
S'39.9750277778'
p5052
sg12
S'AIRPORT'
p5053
sa(dp5054
g2
S'08G'
p5055
sg4
S'SALT FORK LODGE'
p5056
sg6
S'-81.5262305556'
p5057
sg8
S'OHIO'
p5058
sg10
S'40.1109027778'
p5059
sg12
S'HELIPORT'
p5060
sa(dp5061
g2
S'5D1'
p5062
sg4
S'STARK COUNTY SHERIFF'
p5063
sg6
S'-81.3081638889'
p5064
sg8
S'OHIO'
p5065
sg10
S'40.8397805556'
p5066
sg12
S'HELIPORT'
p5067
sa(dp5068
g2
S'TSO'
p5069
sg4
S'CARROLL COUNTY-TOLSON'
p5070
sg6
S'-81.0780833333'
p5071
sg8
S'OHIO'
p5072
sg10
S'40.5616666667'
p5073
sg12
S'AIRPORT'
p5074
sa(dp5075
g2
S'5D6'
p5076
sg4
S'PARSONS'
p5077
sg6
S'-81.0687055556'
p5078
sg8
S'OHIO'
p5079
sg10
S'40.6481166667'
p5080
sg12
S'AIRPORT'
p5081
sa(dp5082
g2
S'CQA'
p5083
sg4
S'LAKEFIELD'
p5084
sg6
S'-84.5581944444'
p5085
sg8
S'OHIO'
p5086
sg10
S'40.4842777778'
p5087
sg12
S'AIRPORT'
p5088
sa(dp5089
g2
S'6CM'
p5090
sg4
S'CHAPMAN MEMORIAL FIELD'
p5091
sg6
S'-82.7299722222'
p5092
sg8
S'OHIO'
p5093
sg10
S'40.29545'
p5094
sg12
S'AIRPORT'
p5095
sa(dp5096
g2
S'HTW'
p5097
sg4
S'LAWRENCE COUNTY AIRPARK'
p5098
sg6
S'-82.4948305556'
p5099
sg8
S'OHIO'
p5100
sg10
S'38.4191222222'
p5101
sg12
S'AIRPORT'
p5102
sa(dp5103
g2
S'RZT'
p5104
sg4
S'ROSS COUNTY'
p5105
sg6
S'-83.0230555556'
p5106
sg8
S'OHIO'
p5107
sg10
S'39.4404166667'
p5108
sg12
S'AIRPORT'
p5109
sa(dp5110
g2
S'LUK'
p5111
sg4
S'CINCINNATI MUNI AIRPORT LUNKEN FIELD'
p5112
sg6
S'-84.4186111111'
p5113
sg8
S'OHIO'
p5114
sg10
S'39.1033333333'
p5115
sg12
S'AIRPORT'
p5116
sa(dp5117
g2
S'03I'
p5118
sg4
S'CLARKS DREAM STRIP'
p5119
sg6
S'-83.0174722222'
p5120
sg8
S'OHIO'
p5121
sg10
S'39.6436944444'
p5122
sg12
S'AIRPORT'
p5123
sa(dp5124
g2
S'CYO'
p5125
sg4
S'PICKAWAY COUNTY MEMORIAL'
p5126
sg6
S'-82.9821388889'
p5127
sg8
S'OHIO'
p5128
sg10
S'39.516'
p5129
sg12
S'AIRPORT'
p5130
sa(dp5131
g2
S'BKL'
p5132
sg4
S'BURKE LAKEFRONT'
p5133
sg6
S'-81.6826388889'
p5134
sg8
S'OHIO'
p5135
sg10
S'41.5178611111'
p5136
sg12
S'AIRPORT'
p5137
sa(dp5138
g2
S'CLE'
p5139
sg4
S'CLEVELAND-HOPKINS INTL'
p5140
sg6
S'-81.8546944444'
p5141
sg8
S'OHIO'
p5142
sg10
S'41.4094166667'
p5143
sg12
S'AIRPORT'
p5144
sa(dp5145
g2
S'CGF'
p5146
sg4
S'CUYAHOGA COUNTY'
p5147
sg6
S'-81.4863611111'
p5148
sg8
S'OHIO'
p5149
sg10
S'41.5651111111'
p5150
sg12
S'AIRPORT'
p5151
sa(dp5152
g2
S'5D9'
p5153
sg4
S'BANDIT FIELD AIRDROME'
p5154
sg6
S'-82.9576888889'
p5155
sg8
S'OHIO'
p5156
sg10
S'41.2239416667'
p5157
sg12
S'AIRPORT'
p5158
sa(dp5159
g2
S'4G8'
p5160
sg4
S'COLUMBIA'
p5161
sg6
S'-81.9601333333'
p5162
sg8
S'OHIO'
p5163
sg10
S'41.31915'
p5164
sg12
S'AIRPORT'
p5165
sa(dp5166
g2
S'TZR'
p5167
sg4
S'BOLTON FIELD'
p5168
sg6
S'-83.1369166667'
p5169
sg8
S'OHIO'
p5170
sg10
S'39.9011666667'
p5171
sg12
S'AIRPORT'
p5172
sa(dp5173
g2
S'04I'
p5174
sg4
S'COLUMBUS SOUTHWEST'
p5175
sg6
S'-83.1888'
p5176
sg8
S'OHIO'
p5177
sg10
S'39.9111722222'
p5178
sg12
S'AIRPORT'
p5179
sa(dp5180
g2
S'2A7'
p5181
sg4
S'DEPARTMENT OF TRANSPORTATION'
p5182
sg6
S'-83.0440722222'
p5183
sg8
S'OHIO'
p5184
sg10
S'39.9597861111'
p5185
sg12
S'HELIPORT'
p5186
sa(dp5187
g2
S'OSU'
p5188
sg4
S'OHIO STATE UNIVERSITY'
p5189
sg6
S'-83.07315'
p5190
sg8
S'OHIO'
p5191
sg10
S'40.0798305556'
p5192
sg12
S'AIRPORT'
p5193
sa(dp5194
g2
S'CMH'
p5195
sg4
S'PORT COLUMBUS INTL'
p5196
sg6
S'-82.8921666667'
p5197
sg8
S'OHIO'
p5198
sg10
S'39.9969444444'
p5199
sg12
S'AIRPORT'
p5200
sa(dp5201
g2
S'LCK'
p5202
sg4
S'RICKENBACKER INTL'
p5203
sg6
S'-82.9278055556'
p5204
sg8
S'OHIO'
p5205
sg10
S'39.8137777778'
p5206
sg12
S'AIRPORT'
p5207
sa(dp5208
g2
S'I40'
p5209
sg4
S'RICHARD DOWNING'
p5210
sg6
S'-81.8524166667'
p5211
sg8
S'OHIO'
p5212
sg10
S'40.3101666667'
p5213
sg12
S'AIRPORT'
p5214
sa(dp5215
g2
S'I44'
p5216
sg4
S'DAHIO TROTWOOD'
p5217
sg6
S'-84.3432777778'
p5218
sg8
S'OHIO'
p5219
sg10
S'39.7658888889'
p5220
sg12
S'AIRPORT'
p5221
sa(dp5222
g2
S'5D7'
p5223
sg4
S'DAYTON TRANSPORTATION CNTR'
p5224
sg6
S'-84.1883944444'
p5225
sg8
S'OHIO'
p5226
sg10
S'39.7575555556'
p5227
sg12
S'HELIPORT'
p5228
sa(dp5229
g2
S'MGY'
p5230
sg4
S'DAYTON-WRIGHT BROTHERS'
p5231
sg6
S'-84.2248611111'
p5232
sg8
S'OHIO'
p5233
sg10
S'39.5889722222'
p5234
sg12
S'AIRPORT'
p5235
sa(dp5236
g2
S'I19'
p5237
sg4
S'GREENE COUNTY-LEWIS A JACKSON RGNL'
p5238
sg6
S'-83.9919888889'
p5239
sg8
S'OHIO'
p5240
sg10
S'39.6910277778'
p5241
sg12
S'AIRPORT'
p5242
sa(dp5243
g2
S'DAY'
p5244
sg4
S'JAMES M COX DAYTON INTL'
p5245
sg6
S'-84.2194166667'
p5246
sg8
S'OHIO'
p5247
sg10
S'39.90225'
p5248
sg12
S'AIRPORT'
p5249
sa(dp5250
g2
S'I73'
p5251
sg4
S'MORAINE AIR PARK'
p5252
sg6
S'-84.2399916667'
p5253
sg8
S'OHIO'
p5254
sg10
S'39.6821083333'
p5255
sg12
S'AIRPORT'
p5256
sa(dp5257
g2
S'DFI'
p5258
sg4
S'DEFIANCE MEMORIAL'
p5259
sg6
S'-84.4288055556'
p5260
sg8
S'OHIO'
p5261
sg10
S'41.3375'
p5262
sg12
S'AIRPORT'
p5263
sa(dp5264
g2
S'DLZ'
p5265
sg4
S'DELAWARE MUNI - JIM MOORE FIELD'
p5266
sg6
S'-83.1133888889'
p5267
sg8
S'OHIO'
p5268
sg10
S'40.2795555556'
p5269
sg12
S'AIRPORT'
p5270
sa(dp5271
g2
S'6D7'
p5272
sg4
S'DESHLER MUNI LANDING STRIP'
p5273
sg6
S'-83.8743833333'
p5274
sg8
S'OHIO'
p5275
sg10
S'41.2158833333'
p5276
sg12
S'AIRPORT'
p5277
sa(dp5278
g2
S'02G'
p5279
sg4
S'COLUMBIANA COUNTY'
p5280
sg6
S'-80.6414166667'
p5281
sg8
S'OHIO'
p5282
sg10
S'40.6733055556'
p5283
sg12
S'AIRPORT'
p5284
sa(dp5285
g2
S'1G1'
p5286
sg4
S'ELYRIA'
p5287
sg6
S'-82.10025'
p5288
sg8
S'OHIO'
p5289
sg10
S'41.3315277778'
p5290
sg12
S'AIRPORT'
p5291
sa(dp5292
g2
S'FDY'
p5293
sg4
S'FINDLAY'
p5294
sg6
S'-83.6686111111'
p5295
sg8
S'OHIO'
p5296
sg10
S'41.0120277778'
p5297
sg12
S'AIRPORT'
p5298
sa(dp5299
g2
S'FZI'
p5300
sg4
S'FOSTORIA METROPOLITAN'
p5301
sg6
S'-83.3930833333'
p5302
sg8
S'OHIO'
p5303
sg10
S'41.1908333333'
p5304
sg12
S'AIRPORT'
p5305
sa(dp5306
g2
S'14G'
p5307
sg4
S'FREMONT'
p5308
sg6
S'-83.1611944444'
p5309
sg8
S'OHIO'
p5310
sg10
S'41.3330833333'
p5311
sg12
S'AIRPORT'
p5312
sa(dp5313
g2
S'S24'
p5314
sg4
S'SANDUSKY COUNTY RGNL'
p5315
sg6
S'-83.0372222222'
p5316
sg8
S'OHIO'
p5317
sg10
S'41.29575'
p5318
sg12
S'AIRPORT'
p5319
sa(dp5320
g2
S'GQQ'
p5321
sg4
S'GALION MUNI'
p5322
sg6
S'-82.7238055556'
p5323
sg8
S'OHIO'
p5324
sg10
S'40.7533888889'
p5325
sg12
S'AIRPORT'
p5326
sa(dp5327
g2
S'GAS'
p5328
sg4
S'GALLIA-MEIGS RGNL'
p5329
sg6
S'-82.1634277778'
p5330
sg8
S'OHIO'
p5331
sg10
S'38.8341111111'
p5332
sg12
S'AIRPORT'
p5333
sa(dp5334
g2
S'7D8'
p5335
sg4
S'GATES'
p5336
sg6
S'-81.0995388889'
p5337
sg8
S'OHIO'
p5338
sg10
S'41.3511638889'
p5339
sg12
S'AIRPORT'
p5340
sa(dp5341
g2
S'7D9'
p5342
sg4
S'GERMACK'
p5343
sg6
S'-80.9039777778'
p5344
sg8
S'OHIO'
p5345
sg10
S'41.7778305556'
p5346
sg12
S'AIRPORT'
p5347
sa(dp5348
g2
S'GEO'
p5349
sg4
S'BROWN COUNTY'
p5350
sg6
S'-83.8827361111'
p5351
sg8
S'OHIO'
p5352
sg10
S'38.8819444444'
p5353
sg12
S'AIRPORT'
p5354
sa(dp5355
g2
S'HAO'
p5356
sg4
S'BUTLER CO RGNL-HOGAN FIELD'
p5357
sg6
S'-84.5219444444'
p5358
sg8
S'OHIO'
p5359
sg10
S'39.36375'
p5360
sg12
S'AIRPORT'
p5361
sa(dp5362
g2
S'I67'
p5363
sg4
S'CINCINNATI WEST'
p5364
sg6
S'-84.7743055556'
p5365
sg8
S'OHIO'
p5366
sg10
S'39.259275'
p5367
sg12
S'AIRPORT'
p5368
sa(dp5369
g2
S'HOC'
p5370
sg4
S'HIGHLAND COUNTY'
p5371
sg6
S'-83.5387888889'
p5372
sg8
S'OHIO'
p5373
sg10
S'39.1887611111'
p5374
sg12
S'AIRPORT'
p5375
sa(dp5376
g2
S'88D'
p5377
sg4
S'HINDE'
p5378
sg6
S'-82.6031472222'
p5379
sg8
S'OHIO'
p5380
sg10
S'41.4044944444'
p5381
sg12
S'AIRPORT'
p5382
sa(dp5383
g2
S'I43'
p5384
sg4
S'JAMES A RHODES'
p5385
sg6
S'-82.57785'
p5386
sg8
S'OHIO'
p5387
sg10
S'38.9813583333'
p5388
sg12
S'AIRPORT'
p5389
sa(dp5390
g2
S'89D'
p5391
sg4
S'KELLEYS ISLAND LAND FLD'
p5392
sg6
S'-82.6853527778'
p5393
sg8
S'OHIO'
p5394
sg10
S'41.6026694444'
p5395
sg12
S'AIRPORT'
p5396
sa(dp5397
g2
S'1G3'
p5398
sg4
S'KENT STATE UNIV'
p5399
sg6
S'-81.4151111111'
p5400
sg8
S'OHIO'
p5401
sg10
S'41.1513888889'
p5402
sg12
S'AIRPORT'
p5403
sa(dp5404
g2
S'I95'
p5405
sg4
S'HARDIN COUNTY'
p5406
sg6
S'-83.64425'
p5407
sg8
S'OHIO'
p5408
sg10
S'40.6100833333'
p5409
sg12
S'AIRPORT'
p5410
sa(dp5411
g2
S'92D'
p5412
sg4
S'LAGRANGE'
p5413
sg6
S'-82.1151472222'
p5414
sg8
S'OHIO'
p5415
sg10
S'41.2028305556'
p5416
sg12
S'AIRPORT'
p5417
sa(dp5418
g2
S'LHQ'
p5419
sg4
S'FAIRFIELD COUNTY'
p5420
sg6
S'-82.6570944444'
p5421
sg8
S'OHIO'
p5422
sg10
S'39.7556361111'
p5423
sg12
S'AIRPORT'
p5424
sa(dp5425
g2
S'I68'
p5426
sg4
S'WARREN COUNTY/JOHN LANE FIELD'
p5427
sg6
S'-84.2518444444'
p5428
sg8
S'OHIO'
p5429
sg10
S'39.4621722222'
p5430
sg12
S'AIRPORT'
p5431
sa(dp5432
g2
S'R47'
p5433
sg4
S"RUHE'S"
p5434
sg6
S'-84.0518861111'
p5435
sg8
S'OHIO'
p5436
sg10
S'41.1031055556'
p5437
sg12
S'AIRPORT'
p5438
sa(dp5439
g2
S'AOH'
p5440
sg4
S'LIMA ALLEN COUNTY'
p5441
sg6
S'-84.0270777778'
p5442
sg8
S'OHIO'
p5443
sg10
S'40.7074777778'
p5444
sg12
S'AIRPORT'
p5445
sa(dp5446
g2
S'UYF'
p5447
sg4
S'MADISON COUNTY'
p5448
sg6
S'-83.462'
p5449
sg8
S'OHIO'
p5450
sg10
S'39.9327222222'
p5451
sg12
S'AIRPORT'
p5452
sa(dp5453
g2
S'LPR'
p5454
sg4
S'LORAIN COUNTY RGNL'
p5455
sg6
S'-82.1776388889'
p5456
sg8
S'OHIO'
p5457
sg10
S'41.3442777778'
p5458
sg12
S'AIRPORT'
p5459
sa(dp5460
g2
S'MFD'
p5461
sg4
S'MANSFIELD LAHM RGNL'
p5462
sg6
S'-82.5166388889'
p5463
sg8
S'OHIO'
p5464
sg10
S'40.8214166667'
p5465
sg12
S'AIRPORT'
p5466
sa(dp5467
g2
S'MNN'
p5468
sg4
S'MARION MUNI'
p5469
sg6
S'-83.0634722222'
p5470
sg8
S'OHIO'
p5471
sg10
S'40.61625'
p5472
sg12
S'AIRPORT'
p5473
sa(dp5474
g2
S'MRT'
p5475
sg4
S'UNION COUNTY'
p5476
sg6
S'-83.3516111111'
p5477
sg8
S'OHIO'
p5478
sg10
S'40.2246944444'
p5479
sg12
S'AIRPORT'
p5480
sa(dp5481
g2
S'22I'
p5482
sg4
S'VINTON COUNTY'
p5483
sg6
S'-82.4418194444'
p5484
sg8
S'OHIO'
p5485
sg10
S'39.328125'
p5486
sg12
S'AIRPORT'
p5487
sa(dp5488
g2
S'I71'
p5489
sg4
S'MORGAN COUNTY'
p5490
sg6
S'-81.8031888889'
p5491
sg8
S'OHIO'
p5492
sg10
S'39.6542361111'
p5493
sg12
S'AIRPORT'
p5494
sa(dp5495
g2
S'1G5'
p5496
sg4
S'MEDINA MUNI'
p5497
sg6
S'-81.7648888889'
p5498
sg8
S'OHIO'
p5499
sg10
S'41.1314444444'
p5500
sg12
S'AIRPORT'
p5501
sa(dp5502
g2
S'3T7'
p5503
sg4
S'MIDDLE BASS ISLAND'
p5504
sg6
S'-82.8081777778'
p5505
sg8
S'OHIO'
p5506
sg10
S'41.6884'
p5507
sg12
S'AIRPORT'
p5508
sa(dp5509
g2
S'3W9'
p5510
sg4
S'MIDDLE BASS-EAST POINT'
p5511
sg6
S'-82.7965555556'
p5512
sg8
S'OHIO'
p5513
sg10
S'41.6944444444'
p5514
sg12
S'AIRPORT'
p5515
sa(dp5516
g2
S'7G8'
p5517
sg4
S'GEAUGA COUNTY'
p5518
sg6
S'-81.0629444444'
p5519
sg8
S'OHIO'
p5520
sg10
S'41.4495833333'
p5521
sg12
S'AIRPORT'
p5522
sa(dp5523
g2
S'MWO'
p5524
sg4
S'MIDDLETOWN REGIONAL/HOOK FIELD'
p5525
sg6
S'-84.3964444444'
p5526
sg8
S'OHIO'
p5527
sg10
S'39.5318055556'
p5528
sg12
S'AIRPORT'
p5529
sa(dp5530
g2
S'10G'
p5531
sg4
S'HOLMES COUNTY'
p5532
sg6
S'-81.9559388889'
p5533
sg8
S'OHIO'
p5534
sg10
S'40.5367'
p5535
sg12
S'AIRPORT'
p5536
sa(dp5537
g2
S'4I9'
p5538
sg4
S'MORROW COUNTY'
p5539
sg6
S'-82.8500555556'
p5540
sg8
S'OHIO'
p5541
sg10
S'40.5245277778'
p5542
sg12
S'AIRPORT'
p5543
sa(dp5544
g2
S'4I3'
p5545
sg4
S'KNOX COUNTY'
p5546
sg6
S'-82.5260833333'
p5547
sg8
S'OHIO'
p5548
sg10
S'40.3289166667'
p5549
sg12
S'AIRPORT'
p5550
sa(dp5551
g2
S'6G4'
p5552
sg4
S'WYNKOOP'
p5553
sg6
S'-82.4957166667'
p5554
sg8
S'OHIO'
p5555
sg10
S'40.3650611111'
p5556
sg12
S'AIRPORT'
p5557
sa(dp5558
g2
S'O74'
p5559
sg4
S'ELLIOTTS LANDING'
p5560
sg6
S'-83.5116666667'
p5561
sg8
S'OHIO'
p5562
sg10
S'40.5247222222'
p5563
sg12
S'AIRPORT'
p5564
sa(dp5565
g2
S'7W5'
p5566
sg4
S'HENRY COUNTY'
p5567
sg6
S'-84.0678611111'
p5568
sg8
S'OHIO'
p5569
sg10
S'41.3742777778'
p5570
sg12
S'AIRPORT'
p5571
sa(dp5572
g2
S'I86'
p5573
sg4
S'PERRY COUNTY'
p5574
sg6
S'-82.1977833333'
p5575
sg8
S'OHIO'
p5576
sg10
S'39.6915944444'
p5577
sg12
S'AIRPORT'
p5578
sa(dp5579
g2
S'PHD'
p5580
sg4
S'HARRY CLEVER FIELD'
p5581
sg6
S'-81.4199444444'
p5582
sg8
S'OHIO'
p5583
sg10
S'40.4701666667'
p5584
sg12
S'AIRPORT'
p5585
sa(dp5586
g2
S'VTA'
p5587
sg4
S'NEWARK-HEATH'
p5588
sg6
S'-82.4618055556'
p5589
sg8
S'OHIO'
p5590
sg10
S'40.0246666667'
p5591
sg12
S'AIRPORT'
p5592
sa(dp5593
g2
S'41N'
p5594
sg4
S'BRACEVILLE'
p5595
sg6
S'-80.9692555556'
p5596
sg8
S'OHIO'
p5597
sg10
S'41.2111666667'
p5598
sg12
S'AIRPORT'
p5599
sa(dp5600
g2
S'3X5'
p5601
sg4
S'NORTH BASS ISLAND'
p5602
sg6
S'-82.8211111111'
p5603
sg8
S'OHIO'
p5604
sg10
S'41.718'
p5605
sg12
S'AIRPORT'
p5606
sa(dp5607
g2
S'5A1'
p5608
sg4
S'NORWALK-HURON COUNTY'
p5609
sg6
S'-82.551225'
p5610
sg8
S'OHIO'
p5611
sg10
S'41.2447638889'
p5612
sg12
S'AIRPORT'
p5613
sa(dp5614
g2
S'OWX'
p5615
sg4
S'PUTNAM COUNTY'
p5616
sg6
S'-83.9819166667'
p5617
sg8
S'OHIO'
p5618
sg10
S'41.0355833333'
p5619
sg12
S'AIRPORT'
p5620
sa(dp5621
g2
S'OXD'
p5622
sg4
S'MIAMI UNIVERSITY'
p5623
sg6
S'-84.7843611111'
p5624
sg8
S'OHIO'
p5625
sg10
S'39.50225'
p5626
sg12
S'AIRPORT'
p5627
sa(dp5628
g2
S'2G1'
p5629
sg4
S'CONCORD AIRPARK'
p5630
sg6
S'-81.1971833333'
p5631
sg8
S'OHIO'
p5632
sg10
S'41.6670416667'
p5633
sg12
S'AIRPORT'
p5634
sa(dp5635
g2
S'6C2'
p5636
sg4
S'OHIO DUSTING CO INC'
p5637
sg6
S'-83.9821638889'
p5638
sg8
S'OHIO'
p5639
sg10
S'40.95255'
p5640
sg12
S'AIRPORT'
p5641
sa(dp5642
g2
S'3I7'
p5643
sg4
S'PHILLIPSBURG'
p5644
sg6
S'-84.4004111111'
p5645
sg8
S'OHIO'
p5646
sg10
S'39.9132777778'
p5647
sg12
S'AIRPORT'
p5648
sa(dp5649
g2
S'I17'
p5650
sg4
S'PIQUA AIRPORT- HARTZELL FIELD'
p5651
sg6
S'-84.3084166667'
p5652
sg8
S'OHIO'
p5653
sg10
S'40.1646944444'
p5654
sg12
S'AIRPORT'
p5655
sa(dp5656
g2
S'PCW'
p5657
sg4
S'ERIE-OTTAWA INTL'
p5658
sg6
S'-82.8694861111'
p5659
sg8
S'OHIO'
p5660
sg10
S'41.5162694444'
p5661
sg12
S'AIRPORT'
p5662
sa(dp5663
g2
S'PMH'
p5664
sg4
S'GREATER PORTSMOUTH RGNL'
p5665
sg6
S'-82.8473055556'
p5666
sg8
S'OHIO'
p5667
sg10
S'38.8404722222'
p5668
sg12
S'AIRPORT'
p5669
sa(dp5670
g2
S'3W2'
p5671
sg4
S'PUT IN BAY'
p5672
sg6
S'-82.8283333333'
p5673
sg8
S'OHIO'
p5674
sg10
S'41.6366666667'
p5675
sg12
S'AIRPORT'
p5676
sa(dp5677
g2
S'5000000000'
p5678
sg4
S'PACKER'
p5679
sg6
S'-83.2193583333'
p5680
sg8
S'OHIO'
p5681
sg10
S'40.407975'
p5682
sg12
S'AIRPORT'
p5683
sa(dp5684
g2
S'POV'
p5685
sg4
S'PORTAGE COUNTY'
p5686
sg6
S'-81.251625'
p5687
sg8
S'OHIO'
p5688
sg10
S'41.2101805556'
p5689
sg12
S'AIRPORT'
p5690
sa(dp5691
g2
S'8G8'
p5692
sg4
S'KOONS'
p5693
sg6
S'-80.8831388889'
p5694
sg8
S'OHIO'
p5695
sg10
S'40.8833916667'
p5696
sg12
S'AIRPORT'
p5697
sa(dp5698
g2
S'38D'
p5699
sg4
S'SALEM AIRPARK INC'
p5700
sg6
S'-80.8620833333'
p5701
sg8
S'OHIO'
p5702
sg10
S'40.9480833333'
p5703
sg12
S'AIRPORT'
p5704
sa(dp5705
g2
S'3G6'
p5706
sg4
S'TRI-CITY'
p5707
sg6
S'-81.0000277778'
p5708
sg8
S'OHIO'
p5709
sg10
S'40.906'
p5710
sg12
S'AIRPORT'
p5711
sa(dp5712
g2
S'12G'
p5713
sg4
S'SHELBY COMMUNITY'
p5714
sg6
S'-82.6973888889'
p5715
sg8
S'OHIO'
p5716
sg10
S'40.8728611111'
p5717
sg12
S'AIRPORT'
p5718
sa(dp5719
g2
S'SCA'
p5720
sg4
S'SIDNEY MUNI'
p5721
sg6
S'-84.1478611111'
p5722
sg8
S'OHIO'
p5723
sg10
S'40.2412777778'
p5724
sg12
S'AIRPORT'
p5725
sa(dp5726
g2
S'SGH'
p5727
sg4
S'SPRINGFIELD-BECKLEY MUNI'
p5728
sg6
S'-83.8401666667'
p5729
sg8
S'OHIO'
p5730
sg10
S'39.8402777778'
p5731
sg12
S'AIRPORT'
p5732
sa(dp5733
g2
S'2P7'
p5734
sg4
S'ALDERMAN'
p5735
sg6
S'-80.9631861111'
p5736
sg8
S'OHIO'
p5737
sg10
S'40.0568611111'
p5738
sg12
S'AIRPORT'
p5739
sa(dp5740
g2
S'O12'
p5741
sg4
S'GRAND LAKE ST MARYS'
p5742
sg6
S'-84.490675'
p5743
sg8
S'OHIO'
p5744
sg10
S'40.5410194444'
p5745
sg12
S'SEAPLANE BASE'
p5746
sa(dp5747
g2
S'2G2'
p5748
sg4
S'JEFFERSON COUNTY AIRPARK'
p5749
sg6
S'-80.7016944444'
p5750
sg8
S'OHIO'
p5751
sg10
S'40.3606111111'
p5752
sg12
S'AIRPORT'
p5753
sa(dp5754
g2
S'16G'
p5755
sg4
S'SENECA COUNTY'
p5756
sg6
S'-83.2125'
p5757
sg8
S'OHIO'
p5758
sg10
S'41.0940555556'
p5759
sg12
S'AIRPORT'
p5760
sa(dp5761
g2
S'6T2'
p5762
sg4
S'SEAGATE HELISTOP'
p5763
sg6
S'-83.5313222222'
p5764
sg8
S'OHIO'
p5765
sg10
S'41.6542138889'
p5766
sg12
S'HELIPORT'
p5767
sa(dp5768
g2
S'TDZ'
p5769
sg4
S'TOLEDO EXECUTIVE'
p5770
sg6
S'-83.4822222222'
p5771
sg8
S'OHIO'
p5772
sg10
S'41.5649444444'
p5773
sg12
S'AIRPORT'
p5774
sa(dp5775
g2
S'TOL'
p5776
sg4
S'TOLEDO EXPRESS'
p5777
sg6
S'-83.8078333333'
p5778
sg8
S'OHIO'
p5779
sg10
S'41.5868055556'
p5780
sg12
S'AIRPORT'
p5781
sa(dp5782
g2
S'2C9'
p5783
sg4
S'TOLEDO SEAPLANE BASE'
p5784
sg6
S'-83.553375'
p5785
sg8
S'OHIO'
p5786
sg10
S'41.6222222222'
p5787
sg12
S'SEAPLANE BASE'
p5788
sa(dp5789
g2
S'1G8'
p5790
sg4
S'EDDIE DEW MEMORIAL AIRPARK'
p5791
sg6
S'-80.6281277778'
p5792
sg8
S'OHIO'
p5793
sg10
S'40.4758972222'
p5794
sg12
S'AIRPORT'
p5795
sa(dp5796
g2
S'I54'
p5797
sg4
S'MAD RIVER AIRPARK'
p5798
sg6
S'-83.8285388889'
p5799
sg8
S'OHIO'
p5800
sg10
S'40.0200583333'
p5801
sg12
S'AIRPORT'
p5802
sa(dp5803
g2
S'37I'
p5804
sg4
S'TROY SKYPARK'
p5805
sg6
S'-84.2705'
p5806
sg8
S'OHIO'
p5807
sg10
S'39.9908861111'
p5808
sg12
S'AIRPORT'
p5809
sa(dp5810
g2
S'1WF'
p5811
sg4
S'WACO FIELD'
p5812
sg6
S'-84.1980555556'
p5813
sg8
S'OHIO'
p5814
sg10
S'40.0147638889'
p5815
sg12
S'AIRPORT'
p5816
sa(dp5817
g2
S'56D'
p5818
sg4
S'WYANDOT COUNTY'
p5819
sg6
S'-83.3145305556'
p5820
sg8
S'OHIO'
p5821
sg10
S'40.8833666667'
p5822
sg12
S'AIRPORT'
p5823
sa(dp5824
g2
S'I74'
p5825
sg4
S'GRIMES FIELD'
p5826
sg6
S'-83.7540611111'
p5827
sg8
S'OHIO'
p5828
sg10
S'40.1323694444'
p5829
sg12
S'AIRPORT'
p5830
sa(dp5831
g2
S'38I'
p5832
sg4
S'WELLER'
p5833
sg6
S'-83.6893722222'
p5834
sg8
S'OHIO'
p5835
sg10
S'40.0911694444'
p5836
sg12
S'AIRPORT'
p5837
sa(dp5838
g2
S'VNW'
p5839
sg4
S'VAN WERT COUNTY'
p5840
sg6
S'-84.6063555556'
p5841
sg8
S'OHIO'
p5842
sg10
S'40.8638277778'
p5843
sg12
S'AIRPORT'
p5844
sa(dp5845
g2
S'VES'
p5846
sg4
S'DARKE COUNTY'
p5847
sg6
S'-84.5319166667'
p5848
sg8
S'OHIO'
p5849
sg10
S'40.2044166667'
p5850
sg12
S'AIRPORT'
p5851
sa(dp5852
g2
S'3G3'
p5853
sg4
S'WADSWORTH MUNI'
p5854
sg6
S'-81.7564388889'
p5855
sg8
S'OHIO'
p5856
sg10
S'41.0031555556'
p5857
sg12
S'AIRPORT'
p5858
sa(dp5859
g2
S'15G'
p5860
sg4
S'WELTZIEN SKYPARK'
p5861
sg6
S'-81.7984666667'
p5862
sg8
S'OHIO'
p5863
sg10
S'41.0283861111'
p5864
sg12
S'AIRPORT'
p5865
sa(dp5866
g2
S'I64'
p5867
sg4
S'ORTNER'
p5868
sg6
S'-82.3707194444'
p5869
sg8
S'OHIO'
p5870
sg10
S'41.2931055556'
p5871
sg12
S'AIRPORT'
p5872
sa(dp5873
g2
S'AXV'
p5874
sg4
S'NEIL ARMSTRONG'
p5875
sg6
S'-84.2980833333'
p5876
sg8
S'OHIO'
p5877
sg10
S'40.4935555556'
p5878
sg12
S'AIRPORT'
p5879
sa(dp5880
g2
S'62D'
p5881
sg4
S'WARREN'
p5882
sg6
S'-80.9273611111'
p5883
sg8
S'OHIO'
p5884
sg10
S'41.2670277778'
p5885
sg12
S'AIRPORT'
p5886
sa(dp5887
g2
S'I23'
p5888
sg4
S'FAYETTE COUNTY'
p5889
sg6
S'-83.4205138889'
p5890
sg8
S'OHIO'
p5891
sg10
S'39.5704027778'
p5892
sg12
S'AIRPORT'
p5893
sa(dp5894
g2
S'USE'
p5895
sg4
S'FULTON COUNTY'
p5896
sg6
S'-84.1271861111'
p5897
sg8
S'OHIO'
p5898
sg10
S'41.6097777778'
p5899
sg12
S'AIRPORT'
p5900
sa(dp5901
g2
S'EOP'
p5902
sg4
S'PIKE COUNTY'
p5903
sg6
S'-82.9283333333'
p5904
sg8
S'OHIO'
p5905
sg10
S'39.1669722222'
p5906
sg12
S'AIRPORT'
p5907
sa(dp5908
g2
S'40I'
p5909
sg4
S'RED STEWART AIRFIELD'
p5910
sg6
S'-84.1218777778'
p5911
sg8
S'OHIO'
p5912
sg10
S'39.5053361111'
p5913
sg12
S'AIRPORT'
p5914
sa(dp5915
g2
S'67D'
p5916
sg4
S'READER-BOTSFORD'
p5917
sg6
S'-82.2026555556'
p5918
sg8
S'OHIO'
p5919
sg10
S'41.1625527778'
p5920
sg12
S'AIRPORT'
p5921
sa(dp5922
g2
S'80G'
p5923
sg4
S'TRI-CITY'
p5924
sg6
S'-81.7359583333'
p5925
sg8
S'OHIO'
p5926
sg10
S'40.2478472222'
p5927
sg12
S'AIRPORT'
p5928
sa(dp5929
g2
S'AMT'
p5930
sg4
S'ALEXANDER SALAMON'
p5931
sg6
S'-83.5662611111'
p5932
sg8
S'OHIO'
p5933
sg10
S'38.8514722222'
p5934
sg12
S'AIRPORT'
p5935
sa(dp5936
g2
S'8G1'
p5937
sg4
S'WILLARD'
p5938
sg6
S'-82.7245638889'
p5939
sg8
S'OHIO'
p5940
sg10
S'41.03875'
p5941
sg12
S'AIRPORT'
p5942
sa(dp5943
g2
S'LNN'
p5944
sg4
S'WILLOUGHBY LOST NATION MUNI'
p5945
sg6
S'-81.38975'
p5946
sg8
S'OHIO'
p5947
sg10
S'41.6840277778'
p5948
sg12
S'AIRPORT'
p5949
sa(dp5950
g2
S'I66'
p5951
sg4
S'CLINTON FIELD'
p5952
sg6
S'-83.8633055556'
p5953
sg8
S'OHIO'
p5954
sg10
S'39.5024722222'
p5955
sg12
S'AIRPORT'
p5956
sa(dp5957
g2
S'2B6'
p5958
sg4
S'HOLLISTER FIELD'
p5959
sg6
S'-83.7082555556'
p5960
sg8
S'OHIO'
p5961
sg10
S'39.4375611111'
p5962
sg12
S'AIRPORT'
p5963
sa(dp5964
g2
S'ILN'
p5965
sg4
S'WILMINGTON AIR PARK'
p5966
sg6
S'-83.7921111111'
p5967
sg8
S'OHIO'
p5968
sg10
S'39.4279166667'
p5969
sg12
S'AIRPORT'
p5970
sa(dp5971
g2
S'4G5'
p5972
sg4
S'MONROE COUNTY'
p5973
sg6
S'-81.1027777778'
p5974
sg8
S'OHIO'
p5975
sg10
S'39.77905'
p5976
sg12
S'AIRPORT'
p5977
sa(dp5978
g2
S'BJJ'
p5979
sg4
S'WAYNE COUNTY'
p5980
sg6
S'-81.88825'
p5981
sg8
S'OHIO'
p5982
sg10
S'40.8748333333'
p5983
sg12
S'AIRPORT'
p5984
sa(dp5985
g2
S'04G'
p5986
sg4
S'LANSDOWNE'
p5987
sg6
S'-80.6195833333'
p5988
sg8
S'OHIO'
p5989
sg10
S'41.1304722222'
p5990
sg12
S'AIRPORT'
p5991
sa(dp5992
g2
S'4G4'
p5993
sg4
S'YOUNGSTOWN ELSER METRO'
p5994
sg6
S'-80.677325'
p5995
sg8
S'OHIO'
p5996
sg10
S'40.9617944444'
p5997
sg12
S'AIRPORT'
p5998
sa(dp5999
g2
S'YNG'
p6000
sg4
S'YOUNGSTOWN-WARREN RGNL'
p6001
sg6
S'-80.6803611111'
p6002
sg8
S'OHIO'
p6003
sg10
S'41.2615833333'
p6004
sg12
S'AIRPORT'
p6005
sa(dp6006
g2
S'42I'
p6007
sg4
S'PARR'
p6008
sg6
S'-82.0123555556'
p6009
sg8
S'OHIO'
p6010
sg10
S'40.0070111111'
p6011
sg12
S'AIRPORT'
p6012
sa(dp6013
g2
S'ZZV'
p6014
sg4
S'ZANESVILLE MUNI'
p6015
sg6
S'-81.8920833333'
p6016
sg8
S'OHIO'
p6017
sg10
S'39.9444444444'
p6018
sg12
S'AIRPORT'
p6019
sa(dp6020
g2
S'ABR'
p6021
sg4
S'ABERDEEN RGNL'
p6022
sg6
S'-98.4224388889'
p6023
sg8
S'SOUTH DAKOTA'
p6024
sg10
S'45.4467972222'
p6025
sg12
S'AIRPORT'
p6026
sa(dp6027
g2
S'3A9'
p6028
sg4
S'ARLINGTON MUNI'
p6029
sg6
S'-97.1229472222'
p6030
sg8
S'SOUTH DAKOTA'
p6031
sg10
S'44.3938277778'
p6032
sg12
S'AIRPORT'
p6033
sa(dp6034
g2
S'EFC'
p6035
sg4
S'BELLE FOURCHE MUNI'
p6036
sg6
S'-103.8618055556'
p6037
sg8
S'SOUTH DAKOTA'
p6038
sg10
S'44.7345555556'
p6039
sg12
S'AIRPORT'
p6040
sa(dp6041
g2
S'6V5'
p6042
sg4
S'BISON MUNI'
p6043
sg6
S'-102.4678333333'
p6044
sg8
S'SOUTH DAKOTA'
p6045
sg10
S'45.5183333333'
p6046
sg12
S'AIRPORT'
p6047
sa(dp6048
g2
S'5P3'
p6049
sg4
S'BOWDLE MUNI'
p6050
sg6
S'-99.6752083333'
p6051
sg8
S'SOUTH DAKOTA'
p6052
sg10
S'45.4395611111'
p6053
sg12
S'AIRPORT'
p6054
sa(dp6055
g2
S'BTN'
p6056
sg4
S'BRITTON MUNI'
p6057
sg6
S'-97.7428055556'
p6058
sg8
S'SOUTH DAKOTA'
p6059
sg10
S'45.8150277778'
p6060
sg12
S'AIRPORT'
p6061
sa(dp6062
g2
S'BKX'
p6063
sg4
S'BROOKINGS RGNL'
p6064
sg6
S'-96.8189166667'
p6065
sg8
S'SOUTH DAKOTA'
p6066
sg10
S'44.3045277778'
p6067
sg12
S'AIRPORT'
p6068
sa(dp6069
g2
S'9D2'
p6070
sg4
S'HARDING COUNTY'
p6071
sg6
S'-103.5289083333'
p6072
sg8
S'SOUTH DAKOTA'
p6073
sg10
S'45.5795527778'
p6074
sg12
S'AIRPORT'
p6075
sa(dp6076
g2
S'7G9'
p6077
sg4
S'CANTON MUNI'
p6078
sg6
S'-96.5712166667'
p6079
sg8
S'SOUTH DAKOTA'
p6080
sg10
S'43.309'
p6081
sg12
S'AIRPORT'
p6082
sa(dp6083
g2
S'9V9'
p6084
sg4
S'CHAMBERLAIN MUNI'
p6085
sg6
S'-99.3212277778'
p6086
sg8
S'SOUTH DAKOTA'
p6087
sg10
S'43.7661361111'
p6088
sg12
S'AIRPORT'
p6089
sa(dp6090
g2
S'8D7'
p6091
sg4
S'CLARK COUNTY'
p6092
sg6
S'-97.7104777778'
p6093
sg8
S'SOUTH DAKOTA'
p6094
sg10
S'44.8950305556'
p6095
sg12
S'AIRPORT'
p6096
sa(dp6097
g2
S'5H3'
p6098
sg4
S'CLEAR LAKE MUNI'
p6099
sg6
S'-96.6881138889'
p6100
sg8
S'SOUTH DAKOTA'
p6101
sg10
S'44.7713527778'
p6102
sg12
S'AIRPORT'
p6103
sa(dp6104
g2
S'D65'
p6105
sg4
S'CORSICA MUNI'
p6106
sg6
S'-98.3975777778'
p6107
sg8
S'SOUTH DAKOTA'
p6108
sg10
S'43.4344333333'
p6109
sg12
S'AIRPORT'
p6110
sa(dp6111
g2
S'CUT'
p6112
sg4
S'CUSTER COUNTY'
p6113
sg6
S'-103.6194972222'
p6114
sg8
S'SOUTH DAKOTA'
p6115
sg10
S'43.7336583333'
p6116
sg12
S'AIRPORT'
p6117
sa(dp6118
g2
S'600000'
p6119
sg4
S'WILDER'
p6120
sg6
S'-97.5581694444'
p6121
sg8
S'SOUTH DAKOTA'
p6122
sg10
S'44.4330527778'
p6123
sg12
S'AIRPORT'
p6124
sa(dp6125
g2
S'84D'
p6126
sg4
S'CHEYENNE EAGLE BUTTE'
p6127
sg6
S'-101.2510555556'
p6128
sg8
S'SOUTH DAKOTA'
p6129
sg10
S'44.9843888889'
p6130
sg12
S'AIRPORT'
p6131
sa(dp6132
g2
S'6V0'
p6133
sg4
S'EDGEMONT MUNI'
p6134
sg6
S'-103.8429805556'
p6135
sg8
S'SOUTH DAKOTA'
p6136
sg10
S'43.295'
p6137
sg12
S'AIRPORT'
p6138
sa(dp6139
g2
S'3W8'
p6140
sg4
S'EUREKA MUNI'
p6141
sg6
S'-99.6427777778'
p6142
sg8
S'SOUTH DAKOTA'
p6143
sg10
S'45.7998888889'
p6144
sg12
S'AIRPORT'
p6145
sa(dp6146
g2
S'3V0'
p6147
sg4
S'CUSTER STATE PARK'
p6148
sg6
S'-103.3499777778'
p6149
sg8
S'SOUTH DAKOTA'
p6150
sg10
S'43.7249166667'
p6151
sg12
S'AIRPORT'
p6152
sa(dp6153
g2
S'D07'
p6154
sg4
S'FAITH MUNI'
p6155
sg6
S'-102.0206666667'
p6156
sg8
S'SOUTH DAKOTA'
p6157
sg10
S'45.0351666667'
p6158
sg12
S'AIRPORT'
p6159
sa(dp6160
g2
S'3FU'
p6161
sg4
S'FAULKTON MUNI'
p6162
sg6
S'-99.1128722222'
p6163
sg8
S'SOUTH DAKOTA'
p6164
sg10
S'45.0306722222'
p6165
sg12
S'AIRPORT'
p6166
sa(dp6167
g2
S'4P3'
p6168
sg4
S'FLANDREAU MUNI'
p6169
sg6
S'-96.5947277778'
p6170
sg8
S'SOUTH DAKOTA'
p6171
sg10
S'44.0043722222'
p6172
sg12
S'AIRPORT'
p6173
sa(dp6174
g2
S'0D8'
p6175
sg4
S'GETTYSBURG MUNI'
p6176
sg6
S'-99.9528888889'
p6177
sg8
S'SOUTH DAKOTA'
p6178
sg10
S'44.9866111111'
p6179
sg12
S'AIRPORT'
p6180
sa(dp6181
g2
S'9D1'
p6182
sg4
S'GREGORY MUNI - FLYNN FLD'
p6183
sg6
S'-99.4034222222'
p6184
sg8
S'SOUTH DAKOTA'
p6185
sg10
S'43.2217777778'
p6186
sg12
S'AIRPORT'
p6187
sa(dp6188
g2
S'2000000'
p6189
sg4
S'GROTON MUNI'
p6190
sg6
S'-98.09525'
p6191
sg8
S'SOUTH DAKOTA'
p6192
sg10
S'45.5345'
p6193
sg12
S'AIRPORT'
p6194
sa(dp6195
g2
S'5T4'
p6196
sg4
S'HERREID MUNI'
p6197
sg6
S'-100.0739777778'
p6198
sg8
S'SOUTH DAKOTA'
p6199
sg10
S'45.8482916667'
p6200
sg12
S'AIRPORT'
p6201
sa(dp6202
g2
S'9D0'
p6203
sg4
S'HIGHMORE MUNI'
p6204
sg6
S'-99.4510111111'
p6205
sg8
S'SOUTH DAKOTA'
p6206
sg10
S'44.5407666667'
p6207
sg12
S'AIRPORT'
p6208
sa(dp6209
g2
S'HSR'
p6210
sg4
S'HOT SPRINGS MUNI'
p6211
sg6
S'-103.3882777778'
p6212
sg8
S'SOUTH DAKOTA'
p6213
sg10
S'43.3683055556'
p6214
sg12
S'AIRPORT'
p6215
sa(dp6216
g2
S'9F8'
p6217
sg4
S'HOVEN MUNI'
p6218
sg6
S'-99.7978388889'
p6219
sg8
S'SOUTH DAKOTA'
p6220
sg10
S'45.2575583333'
p6221
sg12
S'AIRPORT'
p6222
sa(dp6223
g2
S'8D9'
p6224
sg4
S'HOWARD MUNI'
p6225
sg6
S'-97.5378472222'
p6226
sg8
S'SOUTH DAKOTA'
p6227
sg10
S'44.0291388889'
p6228
sg12
S'AIRPORT'
p6229
sa(dp6230
g2
S'HON'
p6231
sg4
S'HURON RGNL'
p6232
sg6
S'-98.2285555556'
p6233
sg8
S'SOUTH DAKOTA'
p6234
sg10
S'44.3851944444'
p6235
sg12
S'AIRPORT'
p6236
sa(dp6237
g2
S'3Y7'
p6238
sg4
S'ISABEL MUNI'
p6239
sg6
S'-101.4375722222'
p6240
sg8
S'SOUTH DAKOTA'
p6241
sg10
S'45.3897111111'
p6242
sg12
S'AIRPORT'
p6243
sa(dp6244
g2
S'5V8'
p6245
sg4
S'KADOKA MUNI'
p6246
sg6
S'-101.4970861111'
p6247
sg8
S'SOUTH DAKOTA'
p6248
sg10
S'43.833325'
p6249
sg12
S'AIRPORT'
p6250
sa(dp6251
g2
S'6A6'
p6252
sg4
S'KIMBALL MUNI'
p6253
sg6
S'-98.9781472222'
p6254
sg8
S'SOUTH DAKOTA'
p6255
sg10
S'43.7583305556'
p6256
sg12
S'AIRPORT'
p6257
sa(dp6258
g2
S'8D8'
p6259
sg4
S'LAKE ANDES MUNI'
p6260
sg6
S'-98.5403583333'
p6261
sg8
S'SOUTH DAKOTA'
p6262
sg10
S'43.1480472222'
p6263
sg12
S'AIRPORT'
p6264
sa(dp6265
g2
S'Y34'
p6266
sg4
S'LAKE PRESTON MUNI'
p6267
sg6
S'-97.3848027778'
p6268
sg8
S'SOUTH DAKOTA'
p6269
sg10
S'44.357275'
p6270
sg12
S'AIRPORT'
p6271
sa(dp6272
g2
S'LEM'
p6273
sg4
S'LEMMON MUNI'
p6274
sg6
S'-102.1055361111'
p6275
sg8
S'SOUTH DAKOTA'
p6276
sg10
S'45.9183777778'
p6277
sg12
S'AIRPORT'
p6278
sa(dp6279
g2
S'MDS'
p6280
sg4
S'MADISON MUNI'
p6281
sg6
S'-97.0856111111'
p6282
sg8
S'SOUTH DAKOTA'
p6283
sg10
S'44.0164166667'
p6284
sg12
S'AIRPORT'
p6285
sa(dp6286
g2
S'9V6'
p6287
sg4
S'MARTIN MUNI'
p6288
sg6
S'-101.7126944444'
p6289
sg8
S'SOUTH DAKOTA'
p6290
sg10
S'43.1656388889'
p6291
sg12
S'AIRPORT'
p6292
sa(dp6293
g2
S'5P2'
p6294
sg4
S'MC LAUGHLIN MUNI'
p6295
sg6
S'-100.78425'
p6296
sg8
S'SOUTH DAKOTA'
p6297
sg10
S'45.7968083333'
p6298
sg12
S'AIRPORT'
p6299
sa(dp6300
g2
S'1D1'
p6301
sg4
S'MILBANK MUNI'
p6302
sg6
S'-96.5660833333'
p6303
sg8
S'SOUTH DAKOTA'
p6304
sg10
S'45.2305'
p6305
sg12
S'AIRPORT'
p6306
sa(dp6307
g2
S'MKA'
p6308
sg4
S'MILLER MUNI'
p6309
sg6
S'-98.9580777778'
p6310
sg8
S'SOUTH DAKOTA'
p6311
sg10
S'44.5252388889'
p6312
sg12
S'AIRPORT'
p6313
sa(dp6314
g2
S'MHE'
p6315
sg4
S'MITCHELL MUNI'
p6316
sg6
S'-98.0386111111'
p6317
sg8
S'SOUTH DAKOTA'
p6318
sg10
S'43.7748333333'
p6319
sg12
S'AIRPORT'
p6320
sa(dp6321
g2
S'MBG'
p6322
sg4
S'MOBRIDGE MUNI'
p6323
sg6
S'-100.4062777778'
p6324
sg8
S'SOUTH DAKOTA'
p6325
sg10
S'45.5462777778'
p6326
sg12
S'AIRPORT'
p6327
sa(dp6328
g2
S'8F6'
p6329
sg4
S'MURDO MUNI'
p6330
sg6
S'-100.7128055556'
p6331
sg8
S'SOUTH DAKOTA'
p6332
sg10
S'43.8521388889'
p6333
sg12
S'AIRPORT'
p6334
sa(dp6335
g2
S'7K7'
p6336
sg4
S'GRAHAM FIELD'
p6337
sg6
S'-96.4847777778'
p6338
sg8
S'SOUTH DAKOTA'
p6339
sg10
S'42.5395'
p6340
sg12
S'AIRPORT'
p6341
sa(dp6342
g2
S'98D'
p6343
sg4
S'ONIDA MUNI'
p6344
sg6
S'-100.1014166667'
p6345
sg8
S'SOUTH DAKOTA'
p6346
sg10
S'44.7005'
p6347
sg12
S'AIRPORT'
p6348
sa(dp6349
g2
S'8V3'
p6350
sg4
S'PARKSTON MUNI'
p6351
sg6
S'-97.9897083333'
p6352
sg8
S'SOUTH DAKOTA'
p6353
sg10
S'43.3774083333'
p6354
sg12
S'AIRPORT'
p6355
sa(dp6356
g2
S'PHP'
p6357
sg4
S'PHILIP'
p6358
sg6
S'-101.5988388889'
p6359
sg8
S'SOUTH DAKOTA'
p6360
sg10
S'44.0487305556'
p6361
sg12
S'AIRPORT'
p6362
sa(dp6363
g2
S'PIR'
p6364
sg4
S'PIERRE RGNL'
p6365
sg6
S'-100.2859722222'
p6366
sg8
S'SOUTH DAKOTA'
p6367
sg10
S'44.3826944444'
p6368
sg12
S'AIRPORT'
p6369
sa(dp6370
g2
S'IEN'
p6371
sg4
S'PINE RIDGE'
p6372
sg6
S'-102.5066055556'
p6373
sg8
S'SOUTH DAKOTA'
p6374
sg10
S'43.0212722222'
p6375
sg12
S'AIRPORT'
p6376
sa(dp6377
g2
S'1D3'
p6378
sg4
S'PLATTE MUNI'
p6379
sg6
S'-98.8304888889'
p6380
sg8
S'SOUTH DAKOTA'
p6381
sg10
S'43.4047138889'
p6382
sg12
S'AIRPORT'
p6383
sa(dp6384
g2
S'5P5'
p6385
sg4
S'PRESHO MUNI'
p6386
sg6
S'-100.0370666667'
p6387
sg8
S'SOUTH DAKOTA'
p6388
sg10
S'43.9063777778'
p6389
sg12
S'AIRPORT'
p6390
sa(dp6391
g2
S'RAP'
p6392
sg4
S'RAPID CITY RGNL'
p6393
sg6
S'-103.0573611111'
p6394
sg8
S'SOUTH DAKOTA'
p6395
sg10
S'44.0453333333'
p6396
sg12
S'AIRPORT'
p6397
sa(dp6398
g2
S'1D8'
p6399
sg4
S'REDFIELD MUNI'
p6400
sg6
S'-98.5295388889'
p6401
sg8
S'SOUTH DAKOTA'
p6402
sg10
S'44.862475'
p6403
sg12
S'AIRPORT'
p6404
sa(dp6405
g2
S'SUO'
p6406
sg4
S'ROSEBUD SIOUX TRIBAL'
p6407
sg6
S'-100.8595'
p6408
sg8
S'SOUTH DAKOTA'
p6409
sg10
S'43.2584722222'
p6410
sg12
S'AIRPORT'
p6411
sa(dp6412
g2
S'FSD'
p6413
sg4
S'JOE FOSS FIELD'
p6414
sg6
S'-96.7419111111'
p6415
sg8
S'SOUTH DAKOTA'
p6416
sg10
S'43.5820111111'
p6417
sg12
S'AIRPORT'
p6418
sa(dp6419
g2
S'8D3'
p6420
sg4
S'SISSETON MUNI'
p6421
sg6
S'-96.9935833333'
p6422
sg8
S'SOUTH DAKOTA'
p6423
sg10
S'45.669525'
p6424
sg12
S'AIRPORT'
p6425
sa(dp6426
g2
S'SPF'
p6427
sg4
S'BLACK HILLS-CLYDE ICE FIELD'
p6428
sg6
S'-103.786'
p6429
sg8
S'SOUTH DAKOTA'
p6430
sg10
S'44.4810555556'
p6431
sg12
S'AIRPORT'
p6432
sa(dp6433
g2
S'Y03'
p6434
sg4
S'SPRINGFIELD MUNI'
p6435
sg6
S'-97.901625'
p6436
sg8
S'SOUTH DAKOTA'
p6437
sg10
S'42.8811194444'
p6438
sg12
S'AIRPORT'
p6439
sa(dp6440
g2
S'49B'
p6441
sg4
S'STURGIS MUNI'
p6442
sg6
S'-103.3777222222'
p6443
sg8
S'SOUTH DAKOTA'
p6444
sg10
S'44.418675'
p6445
sg12
S'AIRPORT'
p6446
sa(dp6447
g2
S'Y14'
p6448
sg4
S'MARV SKIE-LINCOLN COUNTY'
p6449
sg6
S'-96.8013138889'
p6450
sg8
S'SOUTH DAKOTA'
p6451
sg10
S'43.4549027778'
p6452
sg12
S'AIRPORT'
p6453
sa(dp6454
g2
S'D58'
p6455
sg4
S'TIMBER LAKE MUNI'
p6456
sg6
S'-101.0832'
p6457
sg8
S'SOUTH DAKOTA'
p6458
sg10
S'45.4149861111'
p6459
sg12
S'AIRPORT'
p6460
sa(dp6461
g2
S'VMR'
p6462
sg4
S'HAROLD DAVIDSON FIELD'
p6463
sg6
S'-96.93425'
p6464
sg8
S'SOUTH DAKOTA'
p6465
sg10
S'42.7652777778'
p6466
sg12
S'AIRPORT'
p6467
sa(dp6468
g2
S'AGZ'
p6469
sg4
S'WAGNER MUNI'
p6470
sg6
S'-98.2963805556'
p6471
sg8
S'SOUTH DAKOTA'
p6472
sg10
S'43.0641638889'
p6473
sg12
S'AIRPORT'
p6474
sa(dp6475
g2
S'6V4'
p6476
sg4
S'WALL MUNI'
p6477
sg6
S'-102.2546055556'
p6478
sg8
S'SOUTH DAKOTA'
p6479
sg10
S'43.9994944444'
p6480
sg12
S'AIRPORT'
p6481
sa(dp6482
g2
S'ATY'
p6483
sg4
S'WATERTOWN RGNL'
p6484
sg6
S'-97.1547222222'
p6485
sg8
S'SOUTH DAKOTA'
p6486
sg10
S'44.9139722222'
p6487
sg12
S'AIRPORT'
p6488
sa(dp6489
g2
S'1D7'
p6490
sg4
S'THE SIGURD ANDERSON'
p6491
sg6
S'-97.5136111111'
p6492
sg8
S'SOUTH DAKOTA'
p6493
sg10
S'45.2931111111'
p6494
sg12
S'AIRPORT'
p6495
sa(dp6496
g2
S'4X4'
p6497
sg4
S'WESSINGTON SPRINGS'
p6498
sg6
S'-98.5321944444'
p6499
sg8
S'SOUTH DAKOTA'
p6500
sg10
S'44.0618888889'
p6501
sg12
S'AIRPORT'
p6502
sa(dp6503
g2
S'7Q7'
p6504
sg4
S'WHITE RIVER MUNI'
p6505
sg6
S'-100.7418055556'
p6506
sg8
S'SOUTH DAKOTA'
p6507
sg10
S'43.5616638889'
p6508
sg12
S'AIRPORT'
p6509
sa(dp6510
g2
S'ICR'
p6511
sg4
S'WINNER RGNL'
p6512
sg6
S'-99.8412222222'
p6513
sg8
S'SOUTH DAKOTA'
p6514
sg10
S'43.3894722222'
p6515
sg12
S'AIRPORT'
p6516
sa(dp6517
g2
S'YKN'
p6518
sg4
S'CHAN GURNEY MUNI'
p6519
sg6
S'-97.3859444444'
p6520
sg8
S'SOUTH DAKOTA'
p6521
sg10
S'42.9166944444'
p6522
sg12
S'AIRPORT'
p6523
sa(dp6524
g2
S'54W'
p6525
sg4
S'ALBANY'
p6526
sg6
S'-89.4241833333'
p6527
sg8
S'WISCONSIN'
p6528
sg10
S'42.7173861111'
p6529
sg12
S'AIRPORT'
p6530
sa(dp6531
g2
S'AHH'
p6532
sg4
S'AMERY MUNI'
p6533
sg6
S'-92.3753916667'
p6534
sg8
S'WISCONSIN'
p6535
sg10
S'45.2811472222'
p6536
sg12
S'AIRPORT'
p6537
sa(dp6538
g2
S'AIG'
p6539
sg4
S'LANGLADE COUNTY'
p6540
sg6
S'-89.1106166667'
p6541
sg8
S'WISCONSIN'
p6542
sg10
S'45.1539472222'
p6543
sg12
S'AIRPORT'
p6544
sa(dp6545
g2
S'ATW'
p6546
sg4
S'APPLETON INTL'
p6547
sg6
S'-88.5190833333'
p6548
sg8
S'WISCONSIN'
p6549
sg10
S'44.2580833333'
p6550
sg12
S'AIRPORT'
p6551
sa(dp6552
g2
S'ASX'
p6553
sg4
S'JOHN F KENNEDY MEMORIAL'
p6554
sg6
S'-90.9189722222'
p6555
sg8
S'WISCONSIN'
p6556
sg10
S'46.5485277778'
p6557
sg12
S'AIRPORT'
p6558
sa(dp6559
g2
S'DLL'
p6560
sg4
S'BARABOO WISCONSIN DELLS'
p6561
sg6
S'-89.77125'
p6562
sg8
S'WISCONSIN'
p6563
sg10
S'43.5220277778'
p6564
sg12
S'AIRPORT'
p6565
sa(dp6566
g2
S'9Y7'
p6567
sg4
S'BARRON MUNI'
p6568
sg6
S'-91.8343388889'
p6569
sg8
S'WISCONSIN'
p6570
sg10
S'45.4074555556'
p6571
sg12
S'AIRPORT'
p6572
sa(dp6573
g2
S'44C'
p6574
sg4
S'BELOIT'
p6575
sg6
S'-88.9676111111'
p6576
sg8
S'WISCONSIN'
p6577
sg10
S'42.4977777778'
p6578
sg12
S'AIRPORT'
p6579
sa(dp6580
g2
S'BCK'
p6581
sg4
S'BLACK RIVER FALLS AREA'
p6582
sg6
S'-90.8552777778'
p6583
sg8
S'WISCONSIN'
p6584
sg10
S'44.2507361111'
p6585
sg12
S'AIRPORT'
p6586
sa(dp6587
g2
S'OVS'
p6588
sg4
S'BOSCOBEL'
p6589
sg6
S'-90.6737194444'
p6590
sg8
S'WISCONSIN'
p6591
sg10
S'43.16085'
p6592
sg12
S'AIRPORT'
p6593
sa(dp6594
g2
S'BDJ'
p6595
sg4
S'BOULDER JUNCTION PAYZER'
p6596
sg6
S'-89.6459833333'
p6597
sg8
S'WISCONSIN'
p6598
sg10
S'46.1374472222'
p6599
sg12
S'AIRPORT'
p6600
sa(dp6601
g2
S'3T3'
p6602
sg4
S'BOYCEVILLE MUNI'
p6603
sg6
S'-92.0213277778'
p6604
sg8
S'WISCONSIN'
p6605
sg10
S'45.0439527778'
p6606
sg12
S'AIRPORT'
p6607
sa(dp6608
g2
S'C37'
p6609
sg4
S'BRODHEAD'
p6610
sg6
S'-89.3751138889'
p6611
sg8
S'WISCONSIN'
p6612
sg10
S'42.591675'
p6613
sg12
S'AIRPORT'
p6614
sa(dp6615
g2
S'02C'
p6616
sg4
S'CAPITOL'
p6617
sg6
S'-88.1781583333'
p6618
sg8
S'WISCONSIN'
p6619
sg10
S'43.0902222222'
p6620
sg12
S'AIRPORT'
p6621
sa(dp6622
g2
S'BUU'
p6623
sg4
S'BURLINGTON MUNI'
p6624
sg6
S'-88.3046805556'
p6625
sg8
S'WISCONSIN'
p6626
sg10
S'42.6907166667'
p6627
sg12
S'AIRPORT'
p6628
sa(dp6629
g2
S'3CU'
p6630
sg4
S'CABLE UNION'
p6631
sg6
S'-91.2482416667'
p6632
sg8
S'WISCONSIN'
p6633
sg10
S'46.195125'
p6634
sg12
S'AIRPORT'
p6635
sa(dp6636
g2
S'49C'
p6637
sg4
S'CAMP LAKE'
p6638
sg6
S'-88.1584194444'
p6639
sg8
S'WISCONSIN'
p6640
sg10
S'42.53335'
p6641
sg12
S'AIRPORT'
p6642
sa(dp6643
g2
S'C74'
p6644
sg4
S'CASSVILLE MUNI'
p6645
sg6
S'-90.9661055556'
p6646
sg8
S'WISCONSIN'
p6647
sg10
S'42.7042694444'
p6648
sg12
S'AIRPORT'
p6649
sa(dp6650
g2
S'Y23'
p6651
sg4
S'CHETEK MUNI-SOUTHWORTH'
p6652
sg6
S'-91.6368222222'
p6653
sg8
S'WISCONSIN'
p6654
sg10
S'45.3064861111'
p6655
sg12
S'AIRPORT'
p6656
sa(dp6657
g2
S'11Y'
p6658
sg4
S'FLYING FEATHERS'
p6659
sg6
S'-88.1949333333'
p6660
sg8
S'WISCONSIN'
p6661
sg10
S'44.0611833333'
p6662
sg12
S'AIRPORT'
p6663
sa(dp6664
g2
S'CLI'
p6665
sg4
S'CLINTONVILLE MUNI'
p6666
sg6
S'-88.7306972222'
p6667
sg8
S'WISCONSIN'
p6668
sg10
S'44.6132777778'
p6669
sg12
S'AIRPORT'
p6670
sa(dp6671
g2
S'Y55'
p6672
sg4
S'CRANDON/STEVE CONWAY MUNI'
p6673
sg6
S'-88.9284361111'
p6674
sg8
S'WISCONSIN'
p6675
sg10
S'45.5226472222'
p6676
sg12
S'AIRPORT'
p6677
sa(dp6678
g2
S'3D1'
p6679
sg4
S'CRIVITZ MUNI'
p6680
sg6
S'-88.0737777778'
p6681
sg8
S'WISCONSIN'
p6682
sg10
S'45.2143888889'
p6683
sg12
S'AIRPORT'
p6684
sa(dp6685
g2
S'UBE'
p6686
sg4
S'CUMBERLAND MUNI'
p6687
sg6
S'-91.9808'
p6688
sg8
S'WISCONSIN'
p6689
sg10
S'45.5060972222'
p6690
sg12
S'AIRPORT'
p6691
sa(dp6692
g2
S'WN2'
p6693
sg4
S'SILVER LAKE'
p6694
sg6
S'-91.9258333333'
p6695
sg8
S'WISCONSIN'
p6696
sg10
S'45.5844444444'
p6697
sg12
S'SEAPLANE BASE'
p6698
sa(dp6699
g2
S'C59'
p6700
sg4
S'LAKE LAWN'
p6701
sg6
S'-88.6011277778'
p6702
sg8
S'WISCONSIN'
p6703
sg10
S'42.634125'
p6704
sg12
S'AIRPORT'
p6705
sa(dp6706
g2
S'5G4'
p6707
sg4
S'EAU CLAIRE LAKES'
p6708
sg6
S'-91.4965'
p6709
sg8
S'WISCONSIN'
p6710
sg10
S'46.3483888889'
p6711
sg12
S'AIRPORT'
p6712
sa(dp6713
g2
S'EGV'
p6714
sg4
S'EAGLE RIVER UNION'
p6715
sg6
S'-89.2682777778'
p6716
sg8
S'WISCONSIN'
p6717
sg10
S'45.9323333333'
p6718
sg12
S'AIRPORT'
p6719
sa(dp6720
g2
S'57C'
p6721
sg4
S'EAST TROY MUNI'
p6722
sg6
S'-88.3726111111'
p6723
sg8
S'WISCONSIN'
p6724
sg10
S'42.7971666667'
p6725
sg12
S'AIRPORT'
p6726
sa(dp6727
g2
S'EAU'
p6728
sg4
S'CHIPPEWA VALLEY RGNL'
p6729
sg6
S'-91.48425'
p6730
sg8
S'WISCONSIN'
p6731
sg10
S'44.8658055556'
p6732
sg12
S'AIRPORT'
p6733
sa(dp6734
g2
S'58C'
p6735
sg4
S'JANA'
p6736
sg6
S'-89.0756666667'
p6737
sg8
S'WISCONSIN'
p6738
sg10
S'42.8727805556'
p6739
sg12
S'AIRPORT'
p6740
sa(dp6741
g2
S'60C'
p6742
sg4
S'ELROY MUNI'
p6743
sg6
S'-90.2576277778'
p6744
sg8
S'WISCONSIN'
p6745
sg10
S'43.7063611111'
p6746
sg12
S'AIRPORT'
p6747
sa(dp6748
g2
S'3D2'
p6749
sg4
S'EPHRAIM-GIBRALTAR'
p6750
sg6
S'-87.1881277778'
p6751
sg8
S'WISCONSIN'
p6752
sg10
S'45.1357055556'
p6753
sg12
S'AIRPORT'
p6754
sa(dp6755
g2
S'FLD'
p6756
sg4
S'FOND DU LAC COUNTY'
p6757
sg6
S'-88.4884166667'
p6758
sg8
S'WISCONSIN'
p6759
sg10
S'43.7711666667'
p6760
sg12
S'AIRPORT'
p6761
sa(dp6762
g2
S'61C'
p6763
sg4
S'FORT ATKINSON MUNI'
p6764
sg6
S'-88.8176277778'
p6765
sg8
S'WISCONSIN'
p6766
sg10
S'42.9632027778'
p6767
sg12
S'AIRPORT'
p6768
sa(dp6769
g2
S'62C'
p6770
sg4
S'CINDY GUNTLY MEMORIAL'
p6771
sg6
S'-88.0940361111'
p6772
sg8
S'WISCONSIN'
p6773
sg10
S'42.8109388889'
p6774
sg12
S'AIRPORT'
p6775
sa(dp6776
g2
S'63C'
p6777
sg4
S'ADAMS COUNTY LEGION FIELD'
p6778
sg6
S'-89.7886444444'
p6779
sg8
S'WISCONSIN'
p6780
sg10
S'43.9605861111'
p6781
sg12
S'AIRPORT'
p6782
sa(dp6783
g2
S'GTG'
p6784
sg4
S'GRANTSBURG MUNI'
p6785
sg6
S'-92.6643305556'
p6786
sg8
S'WISCONSIN'
p6787
sg10
S'45.7983777778'
p6788
sg12
S'AIRPORT'
p6789
sa(dp6790
g2
S'GRB'
p6791
sg4
S'GREEN BAY-AUSTIN STRAUBEL INTL'
p6792
sg6
S'-88.1297222222'
p6793
sg8
S'WISCONSIN'
p6794
sg10
S'44.4846388889'
p6795
sg12
S'AIRPORT'
p6796
sa(dp6797
g2
S'HXF'
p6798
sg4
S'HARTFORD MUNI'
p6799
sg6
S'-88.391275'
p6800
sg8
S'WISCONSIN'
p6801
sg10
S'43.3492055556'
p6802
sg12
S'AIRPORT'
p6803
sa(dp6804
g2
S'HYR'
p6805
sg4
S'SAWYER COUNTY'
p6806
sg6
S'-91.4442638889'
p6807
sg8
S'WISCONSIN'
p6808
sg10
S'46.0252638889'
p6809
sg12
S'AIRPORT'
p6810
sa(dp6811
g2
S'68C'
p6812
sg4
S'CENTRAL COUNTY'
p6813
sg6
S'-89.0251083333'
p6814
sg8
S'WISCONSIN'
p6815
sg10
S'44.5055361111'
p6816
sg12
S'AIRPORT'
p6817
sa(dp6818
g2
S'Y77'
p6819
sg4
S'BAYFIELD COUNTY'
p6820
sg6
S'-91.4585222222'
p6821
sg8
S'WISCONSIN'
p6822
sg10
S'46.5763277778'
p6823
sg12
S'AIRPORT'
p6824
sa(dp6825
g2
S'JVL'
p6826
sg4
S'SOUTHERN WISCONSIN RGNL'
p6827
sg6
S'-89.0415555556'
p6828
sg8
S'WISCONSIN'
p6829
sg10
S'42.62025'
p6830
sg12
S'AIRPORT'
p6831
sa(dp6832
g2
S'UNU'
p6833
sg4
S'DODGE COUNTY'
p6834
sg6
S'-88.7038611111'
p6835
sg8
S'WISCONSIN'
p6836
sg10
S'43.4264722222'
p6837
sg12
S'AIRPORT'
p6838
sa(dp6839
g2
S'ENW'
p6840
sg4
S'KENOSHA RGNL'
p6841
sg6
S'-87.9278055556'
p6842
sg8
S'WISCONSIN'
p6843
sg10
S'42.5956944444'
p6844
sg12
S'AIRPORT'
p6845
sa(dp6846
g2
S'LSE'
p6847
sg4
S'LA CROSSE RGNL'
p6848
sg6
S'-91.2566388889'
p6849
sg8
S'WISCONSIN'
p6850
sg10
S'43.8792777778'
p6851
sg12
S'AIRPORT'
p6852
sa(dp6853
g2
S'4R5'
p6854
sg4
S'MAJOR GILBERT FIELD'
p6855
sg6
S'-90.7587222222'
p6856
sg8
S'WISCONSIN'
p6857
sg10
S'46.7886666667'
p6858
sg12
S'AIRPORT'
p6859
sa(dp6860
g2
S'4P5'
p6861
sg4
S'FRANKS'
p6862
sg6
S'-90.0001527778'
p6863
sg8
S'WISCONSIN'
p6864
sg10
S'45.8832833333'
p6865
sg12
S'SEAPLANE BASE'
p6866
sa(dp6867
g2
S'RCX'
p6868
sg4
S'RUSK COUNTY'
p6869
sg6
S'-91.0001861111'
p6870
sg8
S'WISCONSIN'
p6871
sg10
S'45.4965833333'
p6872
sg12
S'AIRPORT'
p6873
sa(dp6874
g2
S'C02'
p6875
sg4
S'GRAND GENEVA RESORT'
p6876
sg6
S'-88.3895833333'
p6877
sg8
S'WISCONSIN'
p6878
sg10
S'42.6149166667'
p6879
sg12
S'AIRPORT'
p6880
sa(dp6881
g2
S'73C'
p6882
sg4
S'LANCASTER MUNI'
p6883
sg6
S'-90.6810916667'
p6884
sg8
S'WISCONSIN'
p6885
sg10
S'42.7825972222'
p6886
sg12
S'AIRPORT'
p6887
sa(dp6888
g2
S'LNL'
p6889
sg4
S"KINGS LAND O' LAKES"
p6890
sg6
S'-89.2119638889'
p6891
sg8
S'WISCONSIN'
p6892
sg10
S'46.1541166667'
p6893
sg12
S'AIRPORT'
p6894
sa(dp6895
g2
S'LNR'
p6896
sg4
S'TRI-COUNTY RGNL'
p6897
sg6
S'-90.1798333333'
p6898
sg8
S'WISCONSIN'
p6899
sg10
S'43.2118611111'
p6900
sg12
S'AIRPORT'
p6901
sa(dp6902
g2
S'87Y'
p6903
sg4
S'BLACKHAWK AIRFIELD'
p6904
sg6
S'-89.1853611111'
p6905
sg8
S'WISCONSIN'
p6906
sg10
S'43.1047027778'
p6907
sg12
S'AIRPORT'
p6908
sa(dp6909
g2
S'MSN'
p6910
sg4
S'DANE COUNTY RGNL-TRUAX FIELD'
p6911
sg6
S'-89.3375027778'
p6912
sg8
S'WISCONSIN'
p6913
sg10
S'43.1398777778'
p6914
sg12
S'AIRPORT'
p6915
sa(dp6916
g2
S'D25'
p6917
sg4
S'MANITOWISH WATERS'
p6918
sg6
S'-89.8821972222'
p6919
sg8
S'WISCONSIN'
p6920
sg10
S'46.120225'
p6921
sg12
S'AIRPORT'
p6922
sa(dp6923
g2
S'MTW'
p6924
sg4
S'MANITOWOC COUNTY'
p6925
sg6
S'-87.6805833333'
p6926
sg8
S'WISCONSIN'
p6927
sg10
S'44.1287777778'
p6928
sg12
S'AIRPORT'
p6929
sa(dp6930
g2
S'MFI'
p6931
sg4
S'MARSHFIELD MUNI'
p6932
sg6
S'-90.189325'
p6933
sg8
S'WISCONSIN'
p6934
sg10
S'44.6368777778'
p6935
sg12
S'AIRPORT'
p6936
sa(dp6937
g2
S'MDZ'
p6938
sg4
S'TAYLOR COUNTY'
p6939
sg6
S'-90.3001722222'
p6940
sg8
S'WISCONSIN'
p6941
sg10
S'45.1013166667'
p6942
sg12
S'AIRPORT'
p6943
sa(dp6944
g2
S'LUM'
p6945
sg4
S'MENOMONIE MUNI-SCORE FIELD'
p6946
sg6
S'-91.8678055556'
p6947
sg8
S'WISCONSIN'
p6948
sg10
S'44.8923333333'
p6949
sg12
S'AIRPORT'
p6950
sa(dp6951
g2
S'RRL'
p6952
sg4
S'MERRILL MUNI'
p6953
sg6
S'-89.7128611111'
p6954
sg8
S'WISCONSIN'
p6955
sg10
S'45.1989166667'
p6956
sg12
S'AIRPORT'
p6957
sa(dp6958
g2
S'C29'
p6959
sg4
S'MIDDLETON MUNI - MOREY FIELD'
p6960
sg6
S'-89.5315333333'
p6961
sg8
S'WISCONSIN'
p6962
sg10
S'43.1142694444'
p6963
sg12
S'AIRPORT'
p6964
sa(dp6965
g2
S'MKE'
p6966
sg4
S'GENERAL MITCHELL INTL'
p6967
sg6
S'-87.8970555556'
p6968
sg8
S'WISCONSIN'
p6969
sg10
S'42.9469444444'
p6970
sg12
S'AIRPORT'
p6971
sa(dp6972
g2
S'MWC'
p6973
sg4
S'LAWRENCE J TIMMERMAN'
p6974
sg6
S'-88.0344166667'
p6975
sg8
S'WISCONSIN'
p6976
sg10
S'43.1103888889'
p6977
sg12
S'AIRPORT'
p6978
sa(dp6979
g2
S'MRJ'
p6980
sg4
S'IOWA COUNTY'
p6981
sg6
S'-90.2366666667'
p6982
sg8
S'WISCONSIN'
p6983
sg10
S'42.8868888889'
p6984
sg12
S'AIRPORT'
p6985
sa(dp6986
g2
S'ARV'
p6987
sg4
S'LAKELAND/NOBLE F LEE MEMORIAL FIELD'
p6988
sg6
S'-89.7309444444'
p6989
sg8
S'WISCONSIN'
p6990
sg10
S'45.9279166667'
p6991
sg12
S'AIRPORT'
p6992
sa(dp6993
g2
S'EFT'
p6994
sg4
S'MONROE MUNI'
p6995
sg6
S'-89.5904027778'
p6996
sg8
S'WISCONSIN'
p6997
sg10
S'42.6149'
p6998
sg12
S'AIRPORT'
p6999
sa(dp7000
g2
S'CWA'
p7001
sg4
S'CENTRAL WISCONSIN'
p7002
sg6
S'-89.6667777778'
p7003
sg8
S'WISCONSIN'
p7004
sg10
S'44.7776222222'
p7005
sg12
S'AIRPORT'
p7006
sa(dp7007
g2
S'DAF'
p7008
sg4
S'NECEDAH'
p7009
sg6
S'-90.0851111111'
p7010
sg8
S'WISCONSIN'
p7011
sg10
S'44.0334444444'
p7012
sg12
S'AIRPORT'
p7013
sa(dp7014
g2
S'79C'
p7015
sg4
S'BRENNAND'
p7016
sg6
S'-88.5595527778'
p7017
sg8
S'WISCONSIN'
p7018
sg10
S'44.1599833333'
p7019
sg12
S'AIRPORT'
p7020
sa(dp7021
g2
S'VIQ'
p7022
sg4
S'NEILLSVILLE MUNI'
p7023
sg6
S'-90.51225'
p7024
sg8
S'WISCONSIN'
p7025
sg10
S'44.5581111111'
p7026
sg12
S'AIRPORT'
p7027
sa(dp7028
g2
S'8D1'
p7029
sg4
S'NEW HOLSTEIN MUNI'
p7030
sg6
S'-88.1148416667'
p7031
sg8
S'WISCONSIN'
p7032
sg10
S'43.9441027778'
p7033
sg12
S'AIRPORT'
p7034
sa(dp7035
g2
S'82C'
p7036
sg4
S'MAUSTON-NEW LISBON UNION'
p7037
sg6
S'-90.1377333333'
p7038
sg8
S'WISCONSIN'
p7039
sg10
S'43.8387666667'
p7040
sg12
S'AIRPORT'
p7041
sa(dp7042
g2
S'RNH'
p7043
sg4
S'NEW RICHMOND RGNL'
p7044
sg6
S'-92.5391666667'
p7045
sg8
S'WISCONSIN'
p7046
sg10
S'45.1477777778'
p7047
sg12
S'AIRPORT'
p7048
sa(dp7049
g2
S'84C'
p7050
sg4
S'VALHALLA'
p7051
sg6
S'-88.0425833333'
p7052
sg8
S'WISCONSIN'
p7053
sg10
S'42.7625166667'
p7054
sg12
S'AIRPORT'
p7055
sa(dp7056
g2
S'OCQ'
p7057
sg4
S'OCONTO-J DOUGLAS BAKE MUNI'
p7058
sg6
S'-87.9097694444'
p7059
sg8
S'WISCONSIN'
p7060
sg10
S'44.8740555556'
p7061
sg12
S'AIRPORT'
p7062
sa(dp7063
g2
S'30W'
p7064
sg4
S'SWEETWATER BAY'
p7065
sg6
S'-87.8084361111'
p7066
sg8
S'WISCONSIN'
p7067
sg10
S'44.9519305556'
p7068
sg12
S'SEAPLANE BASE'
p7069
sa(dp7070
g2
S'OEO'
p7071
sg4
S'L O SIMENSTAD MUNI'
p7072
sg6
S'-92.6901222222'
p7073
sg8
S'WISCONSIN'
p7074
sg10
S'45.3093416667'
p7075
sg12
S'AIRPORT'
p7076
sa(dp7077
g2
S'OSH'
p7078
sg4
S'WITTMAN RGNL'
p7079
sg6
S'-88.5569333333'
p7080
sg8
S'WISCONSIN'
p7081
sg10
S'43.9844888889'
p7082
sg12
S'AIRPORT'
p7083
sa(dp7084
g2
S'88C'
p7085
sg4
S'PALMYRA MUNI'
p7086
sg6
S'-88.5999166667'
p7087
sg8
S'WISCONSIN'
p7088
sg10
S'42.8835444444'
p7089
sg12
S'AIRPORT'
p7090
sa(dp7091
g2
S'PKF'
p7092
sg4
S'PARK FALLS MUNI'
p7093
sg6
S'-90.4244333333'
p7094
sg8
S'WISCONSIN'
p7095
sg10
S'45.9550888889'
p7096
sg12
S'AIRPORT'
p7097
sa(dp7098
g2
S'PBH'
p7099
sg4
S'PRICE COUNTY'
p7100
sg6
S'-90.4025'
p7101
sg8
S'WISCONSIN'
p7102
sg10
S'45.7089444444'
p7103
sg12
S'AIRPORT'
p7104
sa(dp7105
g2
S'PVB'
p7106
sg4
S'PLATTEVILLE MUNI'
p7107
sg6
S'-90.4443888889'
p7108
sg8
S'WISCONSIN'
p7109
sg10
S'42.6893611111'
p7110
sg12
S'AIRPORT'
p7111
sa(dp7112
g2
S'C47'
p7113
sg4
S'PORTAGE MUNI'
p7114
sg6
S'-89.4828611111'
p7115
sg8
S'WISCONSIN'
p7116
sg10
S'43.5603055556'
p7117
sg12
S'AIRPORT'
p7118
sa(dp7119
g2
S'PDC'
p7120
sg4
S'PRAIRIE DU CHIEN MUNI'
p7121
sg6
S'-91.1237305556'
p7122
sg8
S'WISCONSIN'
p7123
sg10
S'43.0192833333'
p7124
sg12
S'AIRPORT'
p7125
sa(dp7126
g2
S'91C'
p7127
sg4
S'SAUK-PRAIRIE'
p7128
sg6
S'-89.7558055556'
p7129
sg8
S'WISCONSIN'
p7130
sg10
S'43.2978611111'
p7131
sg12
S'AIRPORT'
p7132
sa(dp7133
g2
S'5N2'
p7134
sg4
S'PRENTICE'
p7135
sg6
S'-90.2793138889'
p7136
sg8
S'WISCONSIN'
p7137
sg10
S'45.5430194444'
p7138
sg12
S'AIRPORT'
p7139
sa(dp7140
g2
S'92C'
p7141
sg4
S'CARTER'
p7142
sg6
S'-88.2152194444'
p7143
sg8
S'WISCONSIN'
p7144
sg10
S'44.6412194444'
p7145
sg12
S'AIRPORT'
p7146
sa(dp7147
g2
S'RAC'
p7148
sg4
S'JOHN H BATTEN'
p7149
sg6
S'-87.8139166667'
p7150
sg8
S'WISCONSIN'
p7151
sg10
S'42.7611666667'
p7152
sg12
S'AIRPORT'
p7153
sa(dp7154
g2
S'C35'
p7155
sg4
S'REEDSBURG MUNI'
p7156
sg6
S'-89.9832194444'
p7157
sg8
S'WISCONSIN'
p7158
sg10
S'43.5258972222'
p7159
sg12
S'AIRPORT'
p7160
sa(dp7161
g2
S'RHI'
p7162
sg4
S'RHINELANDER-ONEIDA COUNTY'
p7163
sg6
S'-89.4666277778'
p7164
sg8
S'WISCONSIN'
p7165
sg10
S'45.6308972222'
p7166
sg12
S'AIRPORT'
p7167
sa(dp7168
g2
S'RPD'
p7169
sg4
S"RICE LAKE RGNL - CARL'S FIELD"
p7170
sg6
S'-91.7733333333'
p7171
sg8
S'WISCONSIN'
p7172
sg10
S'45.4201111111'
p7173
sg12
S'AIRPORT'
p7174
sa(dp7175
g2
S'93C'
p7176
sg4
S'RICHLAND'
p7177
sg6
S'-90.2982805556'
p7178
sg8
S'WISCONSIN'
p7179
sg10
S'43.2833555556'
p7180
sg12
S'AIRPORT'
p7181
sa(dp7182
g2
S'94C'
p7183
sg4
S'GILBERT FIELD'
p7184
sg6
S'-89.2501138889'
p7185
sg8
S'WISCONSIN'
p7186
sg10
S'43.4499833333'
p7187
sg12
S'AIRPORT'
p7188
sa(dp7189
g2
S'96C'
p7190
sg4
S'FOX RIVER'
p7191
sg6
S'-88.2509222222'
p7192
sg8
S'WISCONSIN'
p7193
sg10
S'42.7500138889'
p7194
sg12
S'AIRPORT'
p7195
sa(dp7196
g2
S'EZS'
p7197
sg4
S'SHAWANO MUNI'
p7198
sg6
S'-88.5600138889'
p7199
sg8
S'WISCONSIN'
p7200
sg10
S'44.7873055556'
p7201
sg12
S'AIRPORT'
p7202
sa(dp7203
g2
S'SBM'
p7204
sg4
S'SHEBOYGAN COUNTY MEMORIAL'
p7205
sg6
S'-87.8517222222'
p7206
sg8
S'WISCONSIN'
p7207
sg10
S'43.7697777778'
p7208
sg12
S'AIRPORT'
p7209
sa(dp7210
g2
S'SSQ'
p7211
sg4
S'SHELL LAKE MUNI'
p7212
sg6
S'-91.9206611111'
p7213
sg8
S'WISCONSIN'
p7214
sg10
S'45.7313805556'
p7215
sg12
S'AIRPORT'
p7216
sa(dp7217
g2
S'W34'
p7218
sg4
S'SHIOCTON'
p7219
sg6
S'-88.5617666667'
p7220
sg8
S'WISCONSIN'
p7221
sg10
S'44.4547055556'
p7222
sg12
S'AIRPORT'
p7223
sa(dp7224
g2
S'RZN'
p7225
sg4
S'BURNETT COUNTY'
p7226
sg6
S'-92.3736916667'
p7227
sg8
S'WISCONSIN'
p7228
sg10
S'45.8234638889'
p7229
sg12
S'AIRPORT'
p7230
sa(dp7231
g2
S'SS1'
p7232
sg4
S'NORTH COUNTRY'
p7233
sg6
S'-91.798'
p7234
sg8
S'WISCONSIN'
p7235
sg10
S'46.3698333333'
p7236
sg12
S'SEAPLANE BASE'
p7237
sa(dp7238
g2
S'OLG'
p7239
sg4
S'SOLON SPRINGS MUNI'
p7240
sg6
S'-91.816375'
p7241
sg8
S'WISCONSIN'
p7242
sg10
S'46.31475'
p7243
sg12
S'AIRPORT'
p7244
sa(dp7245
g2
S'CMY'
p7246
sg4
S'SPARTA/FORT MC COY'
p7247
sg6
S'-90.7379333333'
p7248
sg8
S'WISCONSIN'
p7249
sg10
S'43.9582916667'
p7250
sg12
S'AIRPORT'
p7251
sa(dp7252
g2
S'1H9'
p7253
sg4
S'NEST OF EAGLES'
p7254
sg6
S'-91.8028888889'
p7255
sg8
S'WISCONSIN'
p7256
sg10
S'45.8356111111'
p7257
sg12
S'AIRPORT'
p7258
sa(dp7259
g2
S'STE'
p7260
sg4
S'STEVENS POINT MUNI'
p7261
sg6
S'-89.5302833333'
p7262
sg8
S'WISCONSIN'
p7263
sg10
S'44.5451333333'
p7264
sg12
S'AIRPORT'
p7265
sa(dp7266
g2
S'SUE'
p7267
sg4
S'DOOR COUNTY CHERRYLAND'
p7268
sg6
S'-87.4215277778'
p7269
sg8
S'WISCONSIN'
p7270
sg10
S'44.8436666667'
p7271
sg12
S'AIRPORT'
p7272
sa(dp7273
g2
S'C89'
p7274
sg4
S'SYLVANIA'
p7275
sg6
S'-87.9589722222'
p7276
sg8
S'WISCONSIN'
p7277
sg10
S'42.70325'
p7278
sg12
S'AIRPORT'
p7279
sa(dp7280
g2
S'SUW'
p7281
sg4
S'RICHARD I BONG'
p7282
sg6
S'-92.0946416667'
p7283
sg8
S'WISCONSIN'
p7284
sg10
S'46.6896833333'
p7285
sg12
S'AIRPORT'
p7286
sa(dp7287
g2
S'7P5'
p7288
sg4
S'PISO'
p7289
sg6
S'-88.4270833333'
p7290
sg8
S'WISCONSIN'
p7291
sg10
S'45.0654166667'
p7292
sg12
S'AIRPORT'
p7293
sa(dp7294
g2
S'40D'
p7295
sg4
S'THREE LAKES MUNI'
p7296
sg6
S'-89.1209583333'
p7297
sg8
S'WISCONSIN'
p7298
sg10
S'45.7902333333'
p7299
sg12
S'AIRPORT'
p7300
sa(dp7301
g2
S'Y72'
p7302
sg4
S'BLOYER FIELD'
p7303
sg6
S'-90.4806111111'
p7304
sg8
S'WISCONSIN'
p7305
sg10
S'43.9762222222'
p7306
sg12
S'AIRPORT'
p7307
sa(dp7308
g2
S'TKV'
p7309
sg4
S'TOMAHAWK RGNL'
p7310
sg6
S'-89.8048888889'
p7311
sg8
S'WISCONSIN'
p7312
sg10
S'45.4693611111'
p7313
sg12
S'AIRPORT'
p7314
sa(dp7315
g2
S'W19'
p7316
sg4
S'VERONA'
p7317
sg6
S'-89.5094777778'
p7318
sg8
S'WISCONSIN'
p7319
sg10
S'42.9894666667'
p7320
sg12
S'AIRPORT'
p7321
sa(dp7322
g2
S'Y51'
p7323
sg4
S'VIROQUA MUNI'
p7324
sg6
S'-90.897575'
p7325
sg8
S'WISCONSIN'
p7326
sg10
S'43.5796666667'
p7327
sg12
S'AIRPORT'
p7328
sa(dp7329
g2
S'7V3'
p7330
sg4
S'BIG FOOT AIRFIELD'
p7331
sg6
S'-88.6529722222'
p7332
sg8
S'WISCONSIN'
p7333
sg10
S'42.5256666667'
p7334
sg12
S'AIRPORT'
p7335
sa(dp7336
g2
S'2P2'
p7337
sg4
S'WASHINGTON ISLAND'
p7338
sg6
S'-86.9240388889'
p7339
sg8
S'WISCONSIN'
p7340
sg10
S'45.3882527778'
p7341
sg12
S'AIRPORT'
p7342
sa(dp7343
g2
S'RYV'
p7344
sg4
S'WATERTOWN MUNI'
p7345
sg6
S'-88.7232222222'
p7346
sg8
S'WISCONSIN'
p7347
sg10
S'43.1696388889'
p7348
sg12
S'AIRPORT'
p7349
sa(dp7350
g2
S'UES'
p7351
sg4
S'WAUKESHA COUNTY'
p7352
sg6
S'-88.2370555556'
p7353
sg8
S'WISCONSIN'
p7354
sg10
S'43.0410277778'
p7355
sg12
S'AIRPORT'
p7356
sa(dp7357
g2
S'6P3'
p7358
sg4
S'WAUNAKEE'
p7359
sg6
S'-89.4512777778'
p7360
sg8
S'WISCONSIN'
p7361
sg10
S'43.1787222222'
p7362
sg12
S'AIRPORT'
p7363
sa(dp7364
g2
S'PCZ'
p7365
sg4
S'WAUPACA MUNI'
p7366
sg6
S'-89.0197777778'
p7367
sg8
S'WISCONSIN'
p7368
sg10
S'44.33325'
p7369
sg12
S'AIRPORT'
p7370
sa(dp7371
g2
S'AUW'
p7372
sg4
S'WAUSAU DOWNTOWN'
p7373
sg6
S'-89.627'
p7374
sg8
S'WISCONSIN'
p7375
sg10
S'44.9262833333'
p7376
sg12
S'AIRPORT'
p7377
sa(dp7378
g2
S'Y50'
p7379
sg4
S'WAUTOMA MUNI'
p7380
sg6
S'-89.3056888889'
p7381
sg8
S'WISCONSIN'
p7382
sg10
S'44.0431333333'
p7383
sg12
S'AIRPORT'
p7384
sa(dp7385
g2
S'ETB'
p7386
sg4
S'WEST BEND MUNI'
p7387
sg6
S'-88.1279166667'
p7388
sg8
S'WISCONSIN'
p7389
sg10
S'43.4221666667'
p7390
sg12
S'AIRPORT'
p7391
sa(dp7392
g2
S'5Y3'
p7393
sg4
S"GUTZMER'S TWIN OAKS"
p7394
sg6
S'-88.7598055556'
p7395
sg8
S'WISCONSIN'
p7396
sg10
S'42.8535555556'
p7397
sg12
S'AIRPORT'
p7398
sa(dp7399
g2
S'W23'
p7400
sg4
S'WILD ROSE IDLEWILD'
p7401
sg6
S'-89.2178944444'
p7402
sg8
S'WISCONSIN'
p7403
sg10
S'44.1977527778'
p7404
sg12
S'AIRPORT'
p7405
sa(dp7406
g2
S'5K6'
p7407
sg4
S'WESTOSHA'
p7408
sg6
S'-88.2051666667'
p7409
sg8
S'WISCONSIN'
p7410
sg10
S'42.5141388889'
p7411
sg12
S'AIRPORT'
p7412
sa(dp7413
g2
S'ISW'
p7414
sg4
S'ALEXANDER FIELD SOUTH WOOD COUNTY'
p7415
sg6
S'-89.8381388889'
p7416
sg8
S'WISCONSIN'
p7417
sg10
S'44.3606444444'
p7418
sg12
S'AIRPORT'
p7419
sa(dp7420
g2
S'4D1'
p7421
sg4
S'THREE CASTLES AIRPARK'
p7422
sg6
S'-90.2326277778'
p7423
sg8
S'WISCONSIN'
p7424
sg10
S'43.6699722222'
p7425
sg12
S'AIRPORT'
p7426
sa.